0x401000: 55                                              push ebp
0x401001: 89 E5                                           mov ebp, esp
0x401003: 83 EC 08                                        sub esp, 0x8
0x401006: E8 02 00 00 00                                  call 0x7
0x40100B: C9                                              leave 
0x40100C: C3                                              ret 
0x40100D: 55                                              push ebp
0x40100E: 89 E5                                           mov ebp, esp
0x401010: 81 EC F0 05 00 00                               sub esp, 0x5f0
0x401016: C7 45 FC 02 00 00 00                            mov dword ptr [ebp-0x4], 0x2
0x40101D: E9 A8 68 00 00                                  jmp 0x68ad
0x401022: 83 6D FC 01                                     sub dword ptr [ebp-0x4], 0x1
0x401026: A1 00 80 40 00                                  mov eax, dword ptr [0x408000]
0x40102B: 83 F8 02                                        cmp eax, 0x2
0x40102E: 0F 8E 8A 00 00 00                               jle 0x90
0x401034: A1 00 C0 40 00                                  mov eax, dword ptr [0x40c000]
0x401039: 83 C0 03                                        add eax, 0x3
0x40103C: 83 F8 06                                        cmp eax, 0x6
0x40103F: 7F 7D                                           jnle 0x7f
0x401041: 8B 15 20 C0 40 00                               mov edx, dword ptr [0x40c020]
0x401047: A1 24 C0 40 00                                  mov eax, dword ptr [0x40c024]
0x40104C: 39 C2                                           cmp edx, eax
0x40104E: 75 6E                                           jnz 0x70
0x401050: A1 1C C0 40 00                                  mov eax, dword ptr [0x40c01c]
0x401055: 89 45 F8                                        mov dword ptr [ebp-0x8], eax
0x401058: A1 20 C0 40 00                                  mov eax, dword ptr [0x40c020]
0x40105D: 89 45 F4                                        mov dword ptr [ebp-0xc], eax
0x401060: 8B 45 F8                                        mov eax, dword ptr [ebp-0x8]
0x401063: 3B 45 F4                                        cmp eax, dword ptr [ebp-0xc]
0x401066: 7D 56                                           jnl 0x58
0x401068: A1 00 80 40 00                                  mov eax, dword ptr [0x408000]
0x40106D: 83 E8 03                                        sub eax, 0x3
0x401070: A3 00 80 40 00                                  mov dword ptr [0x408000], eax
0x401075: 8B 45 F8                                        mov eax, dword ptr [ebp-0x8]
0x401078: 2B 45 F4                                        sub eax, dword ptr [ebp-0xc]
0x40107B: 89 45 F0                                        mov dword ptr [ebp-0x10], eax
0x40107E: A1 00 C0 40 00                                  mov eax, dword ptr [0x40c000]
0x401083: 8B 55 F8                                        mov edx, dword ptr [ebp-0x8]
0x401086: 89 14 85 04 C0 40 00                            mov dword ptr [eax*4+0x40c004], edx
0x40108D: A1 00 C0 40 00                                  mov eax, dword ptr [0x40c000]
0x401092: 8D 50 01                                        lea edx, ptr [eax+0x1]
0x401095: 8B 45 F4                                        mov eax, dword ptr [ebp-0xc]
0x401098: 89 04 95 04 C0 40 00                            mov dword ptr [edx*4+0x40c004], eax
0x40109F: A1 00 C0 40 00                                  mov eax, dword ptr [0x40c000]
0x4010A4: 8D 50 02                                        lea edx, ptr [eax+0x2]
0x4010A7: 8B 45 F0                                        mov eax, dword ptr [ebp-0x10]
0x4010AA: 89 04 95 04 C0 40 00                            mov dword ptr [edx*4+0x40c004], eax
0x4010B1: A1 00 C0 40 00                                  mov eax, dword ptr [0x40c000]
0x4010B6: 83 C0 03                                        add eax, 0x3
0x4010B9: A3 00 C0 40 00                                  mov dword ptr [0x40c000], eax
0x4010BE: A1 00 80 40 00                                  mov eax, dword ptr [0x408000]
0x4010C3: 83 F8 02                                        cmp eax, 0x2
0x4010C6: 0F 8E 8A 00 00 00                               jle 0x90
0x4010CC: A1 00 C0 40 00                                  mov eax, dword ptr [0x40c000]
0x4010D1: 83 C0 03                                        add eax, 0x3
0x4010D4: 83 F8 06                                        cmp eax, 0x6
0x4010D7: 7F 7D                                           jnle 0x7f
0x4010D9: 8B 15 24 C0 40 00                               mov edx, dword ptr [0x40c024]
0x4010DF: A1 20 C0 40 00                                  mov eax, dword ptr [0x40c020]
0x4010E4: 39 C2                                           cmp edx, eax
0x4010E6: 75 6E                                           jnz 0x70
0x4010E8: A1 1C C0 40 00                                  mov eax, dword ptr [0x40c01c]
0x4010ED: 89 45 EC                                        mov dword ptr [ebp-0x14], eax
0x4010F0: A1 24 C0 40 00                                  mov eax, dword ptr [0x40c024]
0x4010F5: 89 45 E8                                        mov dword ptr [ebp-0x18], eax
0x4010F8: 8B 45 EC                                        mov eax, dword ptr [ebp-0x14]
0x4010FB: 3B 45 E8                                        cmp eax, dword ptr [ebp-0x18]
0x4010FE: 7D 56                                           jnl 0x58
0x401100: A1 00 80 40 00                                  mov eax, dword ptr [0x408000]
0x401105: 83 E8 03                                        sub eax, 0x3
0x401108: A3 00 80 40 00                                  mov dword ptr [0x408000], eax
0x40110D: 8B 45 EC                                        mov eax, dword ptr [ebp-0x14]
0x401110: 2B 45 E8                                        sub eax, dword ptr [ebp-0x18]
0x401113: 89 45 E4                                        mov dword ptr [ebp-0x1c], eax
0x401116: A1 00 C0 40 00                                  mov eax, dword ptr [0x40c000]
0x40111B: 8B 55 EC                                        mov edx, dword ptr [ebp-0x14]
0x40111E: 89 14 85 04 C0 40 00                            mov dword ptr [eax*4+0x40c004], edx
0x401125: A1 00 C0 40 00                                  mov eax, dword ptr [0x40c000]
0x40112A: 8D 50 01                                        lea edx, ptr [eax+0x1]
0x40112D: 8B 45 E8                                        mov eax, dword ptr [ebp-0x18]
0x401130: 89 04 95 04 C0 40 00                            mov dword ptr [edx*4+0x40c004], eax
0x401137: A1 00 C0 40 00                                  mov eax, dword ptr [0x40c000]
0x40113C: 8D 50 02                                        lea edx, ptr [eax+0x2]
0x40113F: 8B 45 E4                                        mov eax, dword ptr [ebp-0x1c]
0x401142: 89 04 95 04 C0 40 00                            mov dword ptr [edx*4+0x40c004], eax
0x401149: A1 00 C0 40 00                                  mov eax, dword ptr [0x40c000]
0x40114E: 83 C0 03                                        add eax, 0x3
0x401151: A3 00 C0 40 00                                  mov dword ptr [0x40c000], eax
0x401156: A1 00 80 40 00                                  mov eax, dword ptr [0x408000]
0x40115B: 83 F8 02                                        cmp eax, 0x2
0x40115E: 0F 8E 8A 00 00 00                               jle 0x90
0x401164: A1 00 C0 40 00                                  mov eax, dword ptr [0x40c000]
0x401169: 83 C0 03                                        add eax, 0x3
0x40116C: 83 F8 06                                        cmp eax, 0x6
0x40116F: 7F 7D                                           jnle 0x7f
0x401171: 8B 15 1C C0 40 00                               mov edx, dword ptr [0x40c01c]
0x401177: A1 24 C0 40 00                                  mov eax, dword ptr [0x40c024]
0x40117C: 39 C2                                           cmp edx, eax
0x40117E: 75 6E                                           jnz 0x70
0x401180: A1 20 C0 40 00                                  mov eax, dword ptr [0x40c020]
0x401185: 89 45 E0                                        mov dword ptr [ebp-0x20], eax
0x401188: A1 1C C0 40 00                                  mov eax, dword ptr [0x40c01c]
0x40118D: 89 45 DC                                        mov dword ptr [ebp-0x24], eax
0x401190: 8B 45 E0                                        mov eax, dword ptr [ebp-0x20]
0x401193: 3B 45 DC                                        cmp eax, dword ptr [ebp-0x24]
0x401196: 7D 56                                           jnl 0x58
0x401198: A1 00 80 40 00                                  mov eax, dword ptr [0x408000]
0x40119D: 83 E8 03                                        sub eax, 0x3
0x4011A0: A3 00 80 40 00                                  mov dword ptr [0x408000], eax
0x4011A5: 8B 45 E0                                        mov eax, dword ptr [ebp-0x20]
0x4011A8: 2B 45 DC                                        sub eax, dword ptr [ebp-0x24]
0x4011AB: 89 45 D8                                        mov dword ptr [ebp-0x28], eax
0x4011AE: A1 00 C0 40 00                                  mov eax, dword ptr [0x40c000]
0x4011B3: 8B 55 E0                                        mov edx, dword ptr [ebp-0x20]
0x4011B6: 89 14 85 04 C0 40 00                            mov dword ptr [eax*4+0x40c004], edx
0x4011BD: A1 00 C0 40 00                                  mov eax, dword ptr [0x40c000]
0x4011C2: 8D 50 01                                        lea edx, ptr [eax+0x1]
0x4011C5: 8B 45 DC                                        mov eax, dword ptr [ebp-0x24]
0x4011C8: 89 04 95 04 C0 40 00                            mov dword ptr [edx*4+0x40c004], eax
0x4011CF: A1 00 C0 40 00                                  mov eax, dword ptr [0x40c000]
0x4011D4: 8D 50 02                                        lea edx, ptr [eax+0x2]
0x4011D7: 8B 45 D8                                        mov eax, dword ptr [ebp-0x28]
0x4011DA: 89 04 95 04 C0 40 00                            mov dword ptr [edx*4+0x40c004], eax
0x4011E1: A1 00 C0 40 00                                  mov eax, dword ptr [0x40c000]
0x4011E6: 83 C0 03                                        add eax, 0x3
0x4011E9: A3 00 C0 40 00                                  mov dword ptr [0x40c000], eax
0x4011EE: A1 00 80 40 00                                  mov eax, dword ptr [0x408000]
0x4011F3: 83 F8 02                                        cmp eax, 0x2
0x4011F6: 0F 8E 8A 00 00 00                               jle 0x90
0x4011FC: A1 00 C0 40 00                                  mov eax, dword ptr [0x40c000]
0x401201: 83 C0 03                                        add eax, 0x3
0x401204: 83 F8 06                                        cmp eax, 0x6
0x401207: 7F 7D                                           jnle 0x7f
0x401209: 8B 15 24 C0 40 00                               mov edx, dword ptr [0x40c024]
0x40120F: A1 1C C0 40 00                                  mov eax, dword ptr [0x40c01c]
0x401214: 39 C2                                           cmp edx, eax
0x401216: 75 6E                                           jnz 0x70
0x401218: A1 20 C0 40 00                                  mov eax, dword ptr [0x40c020]
0x40121D: 89 45 D4                                        mov dword ptr [ebp-0x2c], eax
0x401220: A1 24 C0 40 00                                  mov eax, dword ptr [0x40c024]
0x401225: 89 45 D0                                        mov dword ptr [ebp-0x30], eax
0x401228: 8B 45 D4                                        mov eax, dword ptr [ebp-0x2c]
0x40122B: 3B 45 D0                                        cmp eax, dword ptr [ebp-0x30]
0x40122E: 7D 56                                           jnl 0x58
0x401230: A1 00 80 40 00                                  mov eax, dword ptr [0x408000]
0x401235: 83 E8 03                                        sub eax, 0x3
0x401238: A3 00 80 40 00                                  mov dword ptr [0x408000], eax
0x40123D: 8B 45 D4                                        mov eax, dword ptr [ebp-0x2c]
0x401240: 2B 45 D0                                        sub eax, dword ptr [ebp-0x30]
0x401243: 89 45 CC                                        mov dword ptr [ebp-0x34], eax
0x401246: A1 00 C0 40 00                                  mov eax, dword ptr [0x40c000]
0x40124B: 8B 55 D4                                        mov edx, dword ptr [ebp-0x2c]
0x40124E: 89 14 85 04 C0 40 00                            mov dword ptr [eax*4+0x40c004], edx
0x401255: A1 00 C0 40 00                                  mov eax, dword ptr [0x40c000]
0x40125A: 8D 50 01                                        lea edx, ptr [eax+0x1]
0x40125D: 8B 45 D0                                        mov eax, dword ptr [ebp-0x30]
0x401260: 89 04 95 04 C0 40 00                            mov dword ptr [edx*4+0x40c004], eax
0x401267: A1 00 C0 40 00                                  mov eax, dword ptr [0x40c000]
0x40126C: 8D 50 02                                        lea edx, ptr [eax+0x2]
0x40126F: 8B 45 CC                                        mov eax, dword ptr [ebp-0x34]
0x401272: 89 04 95 04 C0 40 00                            mov dword ptr [edx*4+0x40c004], eax
0x401279: A1 00 C0 40 00                                  mov eax, dword ptr [0x40c000]
0x40127E: 83 C0 03                                        add eax, 0x3
0x401281: A3 00 C0 40 00                                  mov dword ptr [0x40c000], eax
0x401286: A1 00 80 40 00                                  mov eax, dword ptr [0x408000]
0x40128B: 83 F8 02                                        cmp eax, 0x2
0x40128E: 0F 8E 8A 00 00 00                               jle 0x90
0x401294: A1 00 C0 40 00                                  mov eax, dword ptr [0x40c000]
0x401299: 83 C0 03                                        add eax, 0x3
0x40129C: 83 F8 06                                        cmp eax, 0x6
0x40129F: 7F 7D                                           jnle 0x7f
0x4012A1: 8B 15 1C C0 40 00                               mov edx, dword ptr [0x40c01c]
0x4012A7: A1 20 C0 40 00                                  mov eax, dword ptr [0x40c020]
0x4012AC: 39 C2                                           cmp edx, eax
0x4012AE: 75 6E                                           jnz 0x70
0x4012B0: A1 24 C0 40 00                                  mov eax, dword ptr [0x40c024]
0x4012B5: 89 45 C8                                        mov dword ptr [ebp-0x38], eax
0x4012B8: A1 1C C0 40 00                                  mov eax, dword ptr [0x40c01c]
0x4012BD: 89 45 C4                                        mov dword ptr [ebp-0x3c], eax
0x4012C0: 8B 45 C8                                        mov eax, dword ptr [ebp-0x38]
0x4012C3: 3B 45 C4                                        cmp eax, dword ptr [ebp-0x3c]
0x4012C6: 7D 56                                           jnl 0x58
0x4012C8: A1 00 80 40 00                                  mov eax, dword ptr [0x408000]
0x4012CD: 83 E8 03                                        sub eax, 0x3
0x4012D0: A3 00 80 40 00                                  mov dword ptr [0x408000], eax
0x4012D5: 8B 45 C8                                        mov eax, dword ptr [ebp-0x38]
0x4012D8: 2B 45 C4                                        sub eax, dword ptr [ebp-0x3c]
0x4012DB: 89 45 C0                                        mov dword ptr [ebp-0x40], eax
0x4012DE: A1 00 C0 40 00                                  mov eax, dword ptr [0x40c000]
0x4012E3: 8B 55 C8                                        mov edx, dword ptr [ebp-0x38]
0x4012E6: 89 14 85 04 C0 40 00                            mov dword ptr [eax*4+0x40c004], edx
0x4012ED: A1 00 C0 40 00                                  mov eax, dword ptr [0x40c000]
0x4012F2: 8D 50 01                                        lea edx, ptr [eax+0x1]
0x4012F5: 8B 45 C4                                        mov eax, dword ptr [ebp-0x3c]
0x4012F8: 89 04 95 04 C0 40 00                            mov dword ptr [edx*4+0x40c004], eax
0x4012FF: A1 00 C0 40 00                                  mov eax, dword ptr [0x40c000]
0x401304: 8D 50 02                                        lea edx, ptr [eax+0x2]
0x401307: 8B 45 C0                                        mov eax, dword ptr [ebp-0x40]
0x40130A: 89 04 95 04 C0 40 00                            mov dword ptr [edx*4+0x40c004], eax
0x401311: A1 00 C0 40 00                                  mov eax, dword ptr [0x40c000]
0x401316: 83 C0 03                                        add eax, 0x3
0x401319: A3 00 C0 40 00                                  mov dword ptr [0x40c000], eax
0x40131E: A1 00 80 40 00                                  mov eax, dword ptr [0x408000]
0x401323: 83 F8 02                                        cmp eax, 0x2
0x401326: 0F 8E 8A 00 00 00                               jle 0x90
0x40132C: A1 00 C0 40 00                                  mov eax, dword ptr [0x40c000]
0x401331: 83 C0 03                                        add eax, 0x3
0x401334: 83 F8 06                                        cmp eax, 0x6
0x401337: 7F 7D                                           jnle 0x7f
0x401339: 8B 15 20 C0 40 00                               mov edx, dword ptr [0x40c020]
0x40133F: A1 1C C0 40 00                                  mov eax, dword ptr [0x40c01c]
0x401344: 39 C2                                           cmp edx, eax
0x401346: 75 6E                                           jnz 0x70
0x401348: A1 24 C0 40 00                                  mov eax, dword ptr [0x40c024]
0x40134D: 89 45 BC                                        mov dword ptr [ebp-0x44], eax
0x401350: A1 20 C0 40 00                                  mov eax, dword ptr [0x40c020]
0x401355: 89 45 B8                                        mov dword ptr [ebp-0x48], eax
0x401358: 8B 45 BC                                        mov eax, dword ptr [ebp-0x44]
0x40135B: 3B 45 B8                                        cmp eax, dword ptr [ebp-0x48]
0x40135E: 7D 56                                           jnl 0x58
0x401360: A1 00 80 40 00                                  mov eax, dword ptr [0x408000]
0x401365: 83 E8 03                                        sub eax, 0x3
0x401368: A3 00 80 40 00                                  mov dword ptr [0x408000], eax
0x40136D: 8B 45 BC                                        mov eax, dword ptr [ebp-0x44]
0x401370: 2B 45 B8                                        sub eax, dword ptr [ebp-0x48]
0x401373: 89 45 B4                                        mov dword ptr [ebp-0x4c], eax
0x401376: A1 00 C0 40 00                                  mov eax, dword ptr [0x40c000]
0x40137B: 8B 55 BC                                        mov edx, dword ptr [ebp-0x44]
0x40137E: 89 14 85 04 C0 40 00                            mov dword ptr [eax*4+0x40c004], edx
0x401385: A1 00 C0 40 00                                  mov eax, dword ptr [0x40c000]
0x40138A: 8D 50 01                                        lea edx, ptr [eax+0x1]
0x40138D: 8B 45 B8                                        mov eax, dword ptr [ebp-0x48]
0x401390: 89 04 95 04 C0 40 00                            mov dword ptr [edx*4+0x40c004], eax
0x401397: A1 00 C0 40 00                                  mov eax, dword ptr [0x40c000]
0x40139C: 8D 50 02                                        lea edx, ptr [eax+0x2]
0x40139F: 8B 45 B4                                        mov eax, dword ptr [ebp-0x4c]
0x4013A2: 89 04 95 04 C0 40 00                            mov dword ptr [edx*4+0x40c004], eax
0x4013A9: A1 00 C0 40 00                                  mov eax, dword ptr [0x40c000]
0x4013AE: 83 C0 03                                        add eax, 0x3
0x4013B1: A3 00 C0 40 00                                  mov dword ptr [0x40c000], eax
0x4013B6: A1 04 80 40 00                                  mov eax, dword ptr [0x408004]
0x4013BB: 83 F8 03                                        cmp eax, 0x3
0x4013BE: 0F 8E 9F 00 00 00                               jle 0xa5
0x4013C4: A1 00 C0 40 00                                  mov eax, dword ptr [0x40c000]
0x4013C9: 83 C0 03                                        add eax, 0x3
0x4013CC: 83 F8 06                                        cmp eax, 0x6
0x4013CF: 0F 8F 8E 00 00 00                               jnle 0x94
0x4013D5: 8B 15 2C C0 40 00                               mov edx, dword ptr [0x40c02c]
0x4013DB: A1 30 C0 40 00                                  mov eax, dword ptr [0x40c030]
0x4013E0: 39 C2                                           cmp edx, eax
0x4013E2: 75 7F                                           jnz 0x81
0x4013E4: 8B 15 2C C0 40 00                               mov edx, dword ptr [0x40c02c]
0x4013EA: A1 34 C0 40 00                                  mov eax, dword ptr [0x40c034]
0x4013EF: 39 C2                                           cmp edx, eax
0x4013F1: 75 70                                           jnz 0x72
0x4013F3: A1 28 C0 40 00                                  mov eax, dword ptr [0x40c028]
0x4013F8: 89 45 B0                                        mov dword ptr [ebp-0x50], eax
0x4013FB: A1 2C C0 40 00                                  mov eax, dword ptr [0x40c02c]
0x401400: 89 45 AC                                        mov dword ptr [ebp-0x54], eax
0x401403: 8B 45 AC                                        mov eax, dword ptr [ebp-0x54]
0x401406: 3B 45 B0                                        cmp eax, dword ptr [ebp-0x50]
0x401409: 7E 58                                           jle 0x5a
0x40140B: A1 04 80 40 00                                  mov eax, dword ptr [0x408004]
0x401410: 83 E8 04                                        sub eax, 0x4
0x401413: A3 04 80 40 00                                  mov dword ptr [0x408004], eax
0x401418: 8B 55 B0                                        mov edx, dword ptr [ebp-0x50]
0x40141B: 8B 45 AC                                        mov eax, dword ptr [ebp-0x54]
0x40141E: 01 D0                                           add eax, edx
0x401420: 89 45 A8                                        mov dword ptr [ebp-0x58], eax
0x401423: A1 00 C0 40 00                                  mov eax, dword ptr [0x40c000]
0x401428: 8B 55 B0                                        mov edx, dword ptr [ebp-0x50]
0x40142B: 89 14 85 04 C0 40 00                            mov dword ptr [eax*4+0x40c004], edx
0x401432: A1 00 C0 40 00                                  mov eax, dword ptr [0x40c000]
0x401437: 8D 50 01                                        lea edx, ptr [eax+0x1]
0x40143A: 8B 45 AC                                        mov eax, dword ptr [ebp-0x54]
0x40143D: 89 04 95 04 C0 40 00                            mov dword ptr [edx*4+0x40c004], eax
0x401444: A1 00 C0 40 00                                  mov eax, dword ptr [0x40c000]
0x401449: 8D 50 02                                        lea edx, ptr [eax+0x2]
0x40144C: 8B 45 A8                                        mov eax, dword ptr [ebp-0x58]
0x40144F: 89 04 95 04 C0 40 00                            mov dword ptr [edx*4+0x40c004], eax
0x401456: A1 00 C0 40 00                                  mov eax, dword ptr [0x40c000]
0x40145B: 83 C0 03                                        add eax, 0x3
0x40145E: A3 00 C0 40 00                                  mov dword ptr [0x40c000], eax
0x401463: A1 04 80 40 00                                  mov eax, dword ptr [0x408004]
0x401468: 83 F8 03                                        cmp eax, 0x3
0x40146B: 0F 8E 9F 00 00 00                               jle 0xa5
0x401471: A1 00 C0 40 00                                  mov eax, dword ptr [0x40c000]
0x401476: 83 C0 03                                        add eax, 0x3
0x401479: 83 F8 06                                        cmp eax, 0x6
0x40147C: 0F 8F 8E 00 00 00                               jnle 0x94
0x401482: 8B 15 2C C0 40 00                               mov edx, dword ptr [0x40c02c]
0x401488: A1 34 C0 40 00                                  mov eax, dword ptr [0x40c034]
0x40148D: 39 C2                                           cmp edx, eax
0x40148F: 75 7F                                           jnz 0x81
0x401491: 8B 15 2C C0 40 00                               mov edx, dword ptr [0x40c02c]
0x401497: A1 30 C0 40 00                                  mov eax, dword ptr [0x40c030]
0x40149C: 39 C2                                           cmp edx, eax
0x40149E: 75 70                                           jnz 0x72
0x4014A0: A1 28 C0 40 00                                  mov eax, dword ptr [0x40c028]
0x4014A5: 89 45 A4                                        mov dword ptr [ebp-0x5c], eax
0x4014A8: A1 2C C0 40 00                                  mov eax, dword ptr [0x40c02c]
0x4014AD: 89 45 A0                                        mov dword ptr [ebp-0x60], eax
0x4014B0: 8B 45 A0                                        mov eax, dword ptr [ebp-0x60]
0x4014B3: 3B 45 A4                                        cmp eax, dword ptr [ebp-0x5c]
0x4014B6: 7E 58                                           jle 0x5a
0x4014B8: A1 04 80 40 00                                  mov eax, dword ptr [0x408004]
0x4014BD: 83 E8 04                                        sub eax, 0x4
0x4014C0: A3 04 80 40 00                                  mov dword ptr [0x408004], eax
0x4014C5: 8B 55 A4                                        mov edx, dword ptr [ebp-0x5c]
0x4014C8: 8B 45 A0                                        mov eax, dword ptr [ebp-0x60]
0x4014CB: 01 D0                                           add eax, edx
0x4014CD: 89 45 9C                                        mov dword ptr [ebp-0x64], eax
0x4014D0: A1 00 C0 40 00                                  mov eax, dword ptr [0x40c000]
0x4014D5: 8B 55 A4                                        mov edx, dword ptr [ebp-0x5c]
0x4014D8: 89 14 85 04 C0 40 00                            mov dword ptr [eax*4+0x40c004], edx
0x4014DF: A1 00 C0 40 00                                  mov eax, dword ptr [0x40c000]
0x4014E4: 8D 50 01                                        lea edx, ptr [eax+0x1]
0x4014E7: 8B 45 A0                                        mov eax, dword ptr [ebp-0x60]
0x4014EA: 89 04 95 04 C0 40 00                            mov dword ptr [edx*4+0x40c004], eax
0x4014F1: A1 00 C0 40 00                                  mov eax, dword ptr [0x40c000]
0x4014F6: 8D 50 02                                        lea edx, ptr [eax+0x2]
0x4014F9: 8B 45 9C                                        mov eax, dword ptr [ebp-0x64]
0x4014FC: 89 04 95 04 C0 40 00                            mov dword ptr [edx*4+0x40c004], eax
0x401503: A1 00 C0 40 00                                  mov eax, dword ptr [0x40c000]
0x401508: 83 C0 03                                        add eax, 0x3
0x40150B: A3 00 C0 40 00                                  mov dword ptr [0x40c000], eax
0x401510: A1 04 80 40 00                                  mov eax, dword ptr [0x408004]
0x401515: 83 F8 03                                        cmp eax, 0x3
0x401518: 0F 8E 9F 00 00 00                               jle 0xa5
0x40151E: A1 00 C0 40 00                                  mov eax, dword ptr [0x40c000]
0x401523: 83 C0 03                                        add eax, 0x3
0x401526: 83 F8 06                                        cmp eax, 0x6
0x401529: 0F 8F 8E 00 00 00                               jnle 0x94
0x40152F: 8B 15 30 C0 40 00                               mov edx, dword ptr [0x40c030]
0x401535: A1 2C C0 40 00                                  mov eax, dword ptr [0x40c02c]
0x40153A: 39 C2                                           cmp edx, eax
0x40153C: 75 7F                                           jnz 0x81
0x40153E: 8B 15 30 C0 40 00                               mov edx, dword ptr [0x40c030]
0x401544: A1 34 C0 40 00                                  mov eax, dword ptr [0x40c034]
0x401549: 39 C2                                           cmp edx, eax
0x40154B: 75 70                                           jnz 0x72
0x40154D: A1 28 C0 40 00                                  mov eax, dword ptr [0x40c028]
0x401552: 89 45 98                                        mov dword ptr [ebp-0x68], eax
0x401555: A1 30 C0 40 00                                  mov eax, dword ptr [0x40c030]
0x40155A: 89 45 94                                        mov dword ptr [ebp-0x6c], eax
0x40155D: 8B 45 94                                        mov eax, dword ptr [ebp-0x6c]
0x401560: 3B 45 98                                        cmp eax, dword ptr [ebp-0x68]
0x401563: 7E 58                                           jle 0x5a
0x401565: A1 04 80 40 00                                  mov eax, dword ptr [0x408004]
0x40156A: 83 E8 04                                        sub eax, 0x4
0x40156D: A3 04 80 40 00                                  mov dword ptr [0x408004], eax
0x401572: 8B 55 98                                        mov edx, dword ptr [ebp-0x68]
0x401575: 8B 45 94                                        mov eax, dword ptr [ebp-0x6c]
0x401578: 01 D0                                           add eax, edx
0x40157A: 89 45 90                                        mov dword ptr [ebp-0x70], eax
0x40157D: A1 00 C0 40 00                                  mov eax, dword ptr [0x40c000]
0x401582: 8B 55 98                                        mov edx, dword ptr [ebp-0x68]
0x401585: 89 14 85 04 C0 40 00                            mov dword ptr [eax*4+0x40c004], edx
0x40158C: A1 00 C0 40 00                                  mov eax, dword ptr [0x40c000]
0x401591: 8D 50 01                                        lea edx, ptr [eax+0x1]
0x401594: 8B 45 94                                        mov eax, dword ptr [ebp-0x6c]
0x401597: 89 04 95 04 C0 40 00                            mov dword ptr [edx*4+0x40c004], eax
0x40159E: A1 00 C0 40 00                                  mov eax, dword ptr [0x40c000]
0x4015A3: 8D 50 02                                        lea edx, ptr [eax+0x2]
0x4015A6: 8B 45 90                                        mov eax, dword ptr [ebp-0x70]
0x4015A9: 89 04 95 04 C0 40 00                            mov dword ptr [edx*4+0x40c004], eax
0x4015B0: A1 00 C0 40 00                                  mov eax, dword ptr [0x40c000]
0x4015B5: 83 C0 03                                        add eax, 0x3
0x4015B8: A3 00 C0 40 00                                  mov dword ptr [0x40c000], eax
0x4015BD: A1 04 80 40 00                                  mov eax, dword ptr [0x408004]
0x4015C2: 83 F8 03                                        cmp eax, 0x3
0x4015C5: 0F 8E 9F 00 00 00                               jle 0xa5
0x4015CB: A1 00 C0 40 00                                  mov eax, dword ptr [0x40c000]
0x4015D0: 83 C0 03                                        add eax, 0x3
0x4015D3: 83 F8 06                                        cmp eax, 0x6
0x4015D6: 0F 8F 8E 00 00 00                               jnle 0x94
0x4015DC: 8B 15 30 C0 40 00                               mov edx, dword ptr [0x40c030]
0x4015E2: A1 34 C0 40 00                                  mov eax, dword ptr [0x40c034]
0x4015E7: 39 C2                                           cmp edx, eax
0x4015E9: 75 7F                                           jnz 0x81
0x4015EB: 8B 15 30 C0 40 00                               mov edx, dword ptr [0x40c030]
0x4015F1: A1 2C C0 40 00                                  mov eax, dword ptr [0x40c02c]
0x4015F6: 39 C2                                           cmp edx, eax
0x4015F8: 75 70                                           jnz 0x72
0x4015FA: A1 28 C0 40 00                                  mov eax, dword ptr [0x40c028]
0x4015FF: 89 45 8C                                        mov dword ptr [ebp-0x74], eax
0x401602: A1 30 C0 40 00                                  mov eax, dword ptr [0x40c030]
0x401607: 89 45 88                                        mov dword ptr [ebp-0x78], eax
0x40160A: 8B 45 88                                        mov eax, dword ptr [ebp-0x78]
0x40160D: 3B 45 8C                                        cmp eax, dword ptr [ebp-0x74]
0x401610: 7E 58                                           jle 0x5a
0x401612: A1 04 80 40 00                                  mov eax, dword ptr [0x408004]
0x401617: 83 E8 04                                        sub eax, 0x4
0x40161A: A3 04 80 40 00                                  mov dword ptr [0x408004], eax
0x40161F: 8B 55 8C                                        mov edx, dword ptr [ebp-0x74]
0x401622: 8B 45 88                                        mov eax, dword ptr [ebp-0x78]
0x401625: 01 D0                                           add eax, edx
0x401627: 89 45 84                                        mov dword ptr [ebp-0x7c], eax
0x40162A: A1 00 C0 40 00                                  mov eax, dword ptr [0x40c000]
0x40162F: 8B 55 8C                                        mov edx, dword ptr [ebp-0x74]
0x401632: 89 14 85 04 C0 40 00                            mov dword ptr [eax*4+0x40c004], edx
0x401639: A1 00 C0 40 00                                  mov eax, dword ptr [0x40c000]
0x40163E: 8D 50 01                                        lea edx, ptr [eax+0x1]
0x401641: 8B 45 88                                        mov eax, dword ptr [ebp-0x78]
0x401644: 89 04 95 04 C0 40 00                            mov dword ptr [edx*4+0x40c004], eax
0x40164B: A1 00 C0 40 00                                  mov eax, dword ptr [0x40c000]
0x401650: 8D 50 02                                        lea edx, ptr [eax+0x2]
0x401653: 8B 45 84                                        mov eax, dword ptr [ebp-0x7c]
0x401656: 89 04 95 04 C0 40 00                            mov dword ptr [edx*4+0x40c004], eax
0x40165D: A1 00 C0 40 00                                  mov eax, dword ptr [0x40c000]
0x401662: 83 C0 03                                        add eax, 0x3
0x401665: A3 00 C0 40 00                                  mov dword ptr [0x40c000], eax
0x40166A: A1 04 80 40 00                                  mov eax, dword ptr [0x408004]
0x40166F: 83 F8 03                                        cmp eax, 0x3
0x401672: 0F 8E B9 00 00 00                               jle 0xbf
0x401678: A1 00 C0 40 00                                  mov eax, dword ptr [0x40c000]
0x40167D: 83 C0 03                                        add eax, 0x3
0x401680: 83 F8 06                                        cmp eax, 0x6
0x401683: 0F 8F A8 00 00 00                               jnle 0xae
0x401689: 8B 15 34 C0 40 00                               mov edx, dword ptr [0x40c034]
0x40168F: A1 2C C0 40 00                                  mov eax, dword ptr [0x40c02c]
0x401694: 39 C2                                           cmp edx, eax
0x401696: 0F 85 95 00 00 00                               jnz 0x9b
0x40169C: 8B 15 34 C0 40 00                               mov edx, dword ptr [0x40c034]
0x4016A2: A1 30 C0 40 00                                  mov eax, dword ptr [0x40c030]
0x4016A7: 39 C2                                           cmp edx, eax
0x4016A9: 0F 85 82 00 00 00                               jnz 0x88
0x4016AF: A1 28 C0 40 00                                  mov eax, dword ptr [0x40c028]
0x4016B4: 89 45 80                                        mov dword ptr [ebp-0x80], eax
0x4016B7: A1 34 C0 40 00                                  mov eax, dword ptr [0x40c034]
0x4016BC: 89 85 7C FF FF FF                               mov dword ptr [ebp-0x84], eax
0x4016C2: 8B 85 7C FF FF FF                               mov eax, dword ptr [ebp-0x84]
0x4016C8: 3B 45 80                                        cmp eax, dword ptr [ebp-0x80]
0x4016CB: 7E 64                                           jle 0x66
0x4016CD: A1 04 80 40 00                                  mov eax, dword ptr [0x408004]
0x4016D2: 83 E8 04                                        sub eax, 0x4
0x4016D5: A3 04 80 40 00                                  mov dword ptr [0x408004], eax
0x4016DA: 8B 55 80                                        mov edx, dword ptr [ebp-0x80]
0x4016DD: 8B 85 7C FF FF FF                               mov eax, dword ptr [ebp-0x84]
0x4016E3: 01 D0                                           add eax, edx
0x4016E5: 89 85 78 FF FF FF                               mov dword ptr [ebp-0x88], eax
0x4016EB: A1 00 C0 40 00                                  mov eax, dword ptr [0x40c000]
0x4016F0: 8B 55 80                                        mov edx, dword ptr [ebp-0x80]
0x4016F3: 89 14 85 04 C0 40 00                            mov dword ptr [eax*4+0x40c004], edx
0x4016FA: A1 00 C0 40 00                                  mov eax, dword ptr [0x40c000]
0x4016FF: 8D 50 01                                        lea edx, ptr [eax+0x1]
0x401702: 8B 85 7C FF FF FF                               mov eax, dword ptr [ebp-0x84]
0x401708: 89 04 95 04 C0 40 00                            mov dword ptr [edx*4+0x40c004], eax
0x40170F: A1 00 C0 40 00                                  mov eax, dword ptr [0x40c000]
0x401714: 8D 50 02                                        lea edx, ptr [eax+0x2]
0x401717: 8B 85 78 FF FF FF                               mov eax, dword ptr [ebp-0x88]
0x40171D: 89 04 95 04 C0 40 00                            mov dword ptr [edx*4+0x40c004], eax
0x401724: A1 00 C0 40 00                                  mov eax, dword ptr [0x40c000]
0x401729: 83 C0 03                                        add eax, 0x3
0x40172C: A3 00 C0 40 00                                  mov dword ptr [0x40c000], eax
0x401731: A1 04 80 40 00                                  mov eax, dword ptr [0x408004]
0x401736: 83 F8 03                                        cmp eax, 0x3
0x401739: 0F 8E C5 00 00 00                               jle 0xcb
0x40173F: A1 00 C0 40 00                                  mov eax, dword ptr [0x40c000]
0x401744: 83 C0 03                                        add eax, 0x3
0x401747: 83 F8 06                                        cmp eax, 0x6
0x40174A: 0F 8F B4 00 00 00                               jnle 0xba
0x401750: 8B 15 34 C0 40 00                               mov edx, dword ptr [0x40c034]
0x401756: A1 30 C0 40 00                                  mov eax, dword ptr [0x40c030]
0x40175B: 39 C2                                           cmp edx, eax
0x40175D: 0F 85 A1 00 00 00                               jnz 0xa7
0x401763: 8B 15 34 C0 40 00                               mov edx, dword ptr [0x40c034]
0x401769: A1 2C C0 40 00                                  mov eax, dword ptr [0x40c02c]
0x40176E: 39 C2                                           cmp edx, eax
0x401770: 0F 85 8E 00 00 00                               jnz 0x94
0x401776: A1 28 C0 40 00                                  mov eax, dword ptr [0x40c028]
0x40177B: 89 85 74 FF FF FF                               mov dword ptr [ebp-0x8c], eax
0x401781: A1 34 C0 40 00                                  mov eax, dword ptr [0x40c034]
0x401786: 89 85 70 FF FF FF                               mov dword ptr [ebp-0x90], eax
0x40178C: 8B 85 70 FF FF FF                               mov eax, dword ptr [ebp-0x90]
0x401792: 3B 85 74 FF FF FF                               cmp eax, dword ptr [ebp-0x8c]
0x401798: 7E 6A                                           jle 0x6c
0x40179A: A1 04 80 40 00                                  mov eax, dword ptr [0x408004]
0x40179F: 83 E8 04                                        sub eax, 0x4
0x4017A2: A3 04 80 40 00                                  mov dword ptr [0x408004], eax
0x4017A7: 8B 95 74 FF FF FF                               mov edx, dword ptr [ebp-0x8c]
0x4017AD: 8B 85 70 FF FF FF                               mov eax, dword ptr [ebp-0x90]
0x4017B3: 01 D0                                           add eax, edx
0x4017B5: 89 85 6C FF FF FF                               mov dword ptr [ebp-0x94], eax
0x4017BB: A1 00 C0 40 00                                  mov eax, dword ptr [0x40c000]
0x4017C0: 8B 95 74 FF FF FF                               mov edx, dword ptr [ebp-0x8c]
0x4017C6: 89 14 85 04 C0 40 00                            mov dword ptr [eax*4+0x40c004], edx
0x4017CD: A1 00 C0 40 00                                  mov eax, dword ptr [0x40c000]
0x4017D2: 8D 50 01                                        lea edx, ptr [eax+0x1]
0x4017D5: 8B 85 70 FF FF FF                               mov eax, dword ptr [ebp-0x90]
0x4017DB: 89 04 95 04 C0 40 00                            mov dword ptr [edx*4+0x40c004], eax
0x4017E2: A1 00 C0 40 00                                  mov eax, dword ptr [0x40c000]
0x4017E7: 8D 50 02                                        lea edx, ptr [eax+0x2]
0x4017EA: 8B 85 6C FF FF FF                               mov eax, dword ptr [ebp-0x94]
0x4017F0: 89 04 95 04 C0 40 00                            mov dword ptr [edx*4+0x40c004], eax
0x4017F7: A1 00 C0 40 00                                  mov eax, dword ptr [0x40c000]
0x4017FC: 83 C0 03                                        add eax, 0x3
0x4017FF: A3 00 C0 40 00                                  mov dword ptr [0x40c000], eax
0x401804: A1 04 80 40 00                                  mov eax, dword ptr [0x408004]
0x401809: 83 F8 03                                        cmp eax, 0x3
0x40180C: 0F 8E C5 00 00 00                               jle 0xcb
0x401812: A1 00 C0 40 00                                  mov eax, dword ptr [0x40c000]
0x401817: 83 C0 03                                        add eax, 0x3
0x40181A: 83 F8 06                                        cmp eax, 0x6
0x40181D: 0F 8F B4 00 00 00                               jnle 0xba
0x401823: 8B 15 28 C0 40 00                               mov edx, dword ptr [0x40c028]
0x401829: A1 30 C0 40 00                                  mov eax, dword ptr [0x40c030]
0x40182E: 39 C2                                           cmp edx, eax
0x401830: 0F 85 A1 00 00 00                               jnz 0xa7
0x401836: 8B 15 28 C0 40 00                               mov edx, dword ptr [0x40c028]
0x40183C: A1 34 C0 40 00                                  mov eax, dword ptr [0x40c034]
0x401841: 39 C2                                           cmp edx, eax
0x401843: 0F 85 8E 00 00 00                               jnz 0x94
0x401849: A1 2C C0 40 00                                  mov eax, dword ptr [0x40c02c]
0x40184E: 89 85 68 FF FF FF                               mov dword ptr [ebp-0x98], eax
0x401854: A1 28 C0 40 00                                  mov eax, dword ptr [0x40c028]
0x401859: 89 85 64 FF FF FF                               mov dword ptr [ebp-0x9c], eax
0x40185F: 8B 85 64 FF FF FF                               mov eax, dword ptr [ebp-0x9c]
0x401865: 3B 85 68 FF FF FF                               cmp eax, dword ptr [ebp-0x98]
0x40186B: 7E 6A                                           jle 0x6c
0x40186D: A1 04 80 40 00                                  mov eax, dword ptr [0x408004]
0x401872: 83 E8 04                                        sub eax, 0x4
0x401875: A3 04 80 40 00                                  mov dword ptr [0x408004], eax
0x40187A: 8B 95 68 FF FF FF                               mov edx, dword ptr [ebp-0x98]
0x401880: 8B 85 64 FF FF FF                               mov eax, dword ptr [ebp-0x9c]
0x401886: 01 D0                                           add eax, edx
0x401888: 89 85 60 FF FF FF                               mov dword ptr [ebp-0xa0], eax
0x40188E: A1 00 C0 40 00                                  mov eax, dword ptr [0x40c000]
0x401893: 8B 95 68 FF FF FF                               mov edx, dword ptr [ebp-0x98]
0x401899: 89 14 85 04 C0 40 00                            mov dword ptr [eax*4+0x40c004], edx
0x4018A0: A1 00 C0 40 00                                  mov eax, dword ptr [0x40c000]
0x4018A5: 8D 50 01                                        lea edx, ptr [eax+0x1]
0x4018A8: 8B 85 64 FF FF FF                               mov eax, dword ptr [ebp-0x9c]
0x4018AE: 89 04 95 04 C0 40 00                            mov dword ptr [edx*4+0x40c004], eax
0x4018B5: A1 00 C0 40 00                                  mov eax, dword ptr [0x40c000]
0x4018BA: 8D 50 02                                        lea edx, ptr [eax+0x2]
0x4018BD: 8B 85 60 FF FF FF                               mov eax, dword ptr [ebp-0xa0]
0x4018C3: 89 04 95 04 C0 40 00                            mov dword ptr [edx*4+0x40c004], eax
0x4018CA: A1 00 C0 40 00                                  mov eax, dword ptr [0x40c000]
0x4018CF: 83 C0 03                                        add eax, 0x3
0x4018D2: A3 00 C0 40 00                                  mov dword ptr [0x40c000], eax
0x4018D7: A1 04 80 40 00                                  mov eax, dword ptr [0x408004]
0x4018DC: 83 F8 03                                        cmp eax, 0x3
0x4018DF: 0F 8E C5 00 00 00                               jle 0xcb
0x4018E5: A1 00 C0 40 00                                  mov eax, dword ptr [0x40c000]
0x4018EA: 83 C0 03                                        add eax, 0x3
0x4018ED: 83 F8 06                                        cmp eax, 0x6
0x4018F0: 0F 8F B4 00 00 00                               jnle 0xba
0x4018F6: 8B 15 28 C0 40 00                               mov edx, dword ptr [0x40c028]
0x4018FC: A1 34 C0 40 00                                  mov eax, dword ptr [0x40c034]
0x401901: 39 C2                                           cmp edx, eax
0x401903: 0F 85 A1 00 00 00                               jnz 0xa7
0x401909: 8B 15 28 C0 40 00                               mov edx, dword ptr [0x40c028]
0x40190F: A1 30 C0 40 00                                  mov eax, dword ptr [0x40c030]
0x401914: 39 C2                                           cmp edx, eax
0x401916: 0F 85 8E 00 00 00                               jnz 0x94
0x40191C: A1 2C C0 40 00                                  mov eax, dword ptr [0x40c02c]
0x401921: 89 85 5C FF FF FF                               mov dword ptr [ebp-0xa4], eax
0x401927: A1 28 C0 40 00                                  mov eax, dword ptr [0x40c028]
0x40192C: 89 85 58 FF FF FF                               mov dword ptr [ebp-0xa8], eax
0x401932: 8B 85 58 FF FF FF                               mov eax, dword ptr [ebp-0xa8]
0x401938: 3B 85 5C FF FF FF                               cmp eax, dword ptr [ebp-0xa4]
0x40193E: 7E 6A                                           jle 0x6c
0x401940: A1 04 80 40 00                                  mov eax, dword ptr [0x408004]
0x401945: 83 E8 04                                        sub eax, 0x4
0x401948: A3 04 80 40 00                                  mov dword ptr [0x408004], eax
0x40194D: 8B 95 5C FF FF FF                               mov edx, dword ptr [ebp-0xa4]
0x401953: 8B 85 58 FF FF FF                               mov eax, dword ptr [ebp-0xa8]
0x401959: 01 D0                                           add eax, edx
0x40195B: 89 85 54 FF FF FF                               mov dword ptr [ebp-0xac], eax
0x401961: A1 00 C0 40 00                                  mov eax, dword ptr [0x40c000]
0x401966: 8B 95 5C FF FF FF                               mov edx, dword ptr [ebp-0xa4]
0x40196C: 89 14 85 04 C0 40 00                            mov dword ptr [eax*4+0x40c004], edx
0x401973: A1 00 C0 40 00                                  mov eax, dword ptr [0x40c000]
0x401978: 8D 50 01                                        lea edx, ptr [eax+0x1]
0x40197B: 8B 85 58 FF FF FF                               mov eax, dword ptr [ebp-0xa8]
0x401981: 89 04 95 04 C0 40 00                            mov dword ptr [edx*4+0x40c004], eax
0x401988: A1 00 C0 40 00                                  mov eax, dword ptr [0x40c000]
0x40198D: 8D 50 02                                        lea edx, ptr [eax+0x2]
0x401990: 8B 85 54 FF FF FF                               mov eax, dword ptr [ebp-0xac]
0x401996: 89 04 95 04 C0 40 00                            mov dword ptr [edx*4+0x40c004], eax
0x40199D: A1 00 C0 40 00                                  mov eax, dword ptr [0x40c000]
0x4019A2: 83 C0 03                                        add eax, 0x3
0x4019A5: A3 00 C0 40 00                                  mov dword ptr [0x40c000], eax
0x4019AA: A1 04 80 40 00                                  mov eax, dword ptr [0x408004]
0x4019AF: 83 F8 03                                        cmp eax, 0x3
0x4019B2: 0F 8E C5 00 00 00                               jle 0xcb
0x4019B8: A1 00 C0 40 00                                  mov eax, dword ptr [0x40c000]
0x4019BD: 83 C0 03                                        add eax, 0x3
0x4019C0: 83 F8 06                                        cmp eax, 0x6
0x4019C3: 0F 8F B4 00 00 00                               jnle 0xba
0x4019C9: 8B 15 30 C0 40 00                               mov edx, dword ptr [0x40c030]
0x4019CF: A1 28 C0 40 00                                  mov eax, dword ptr [0x40c028]
0x4019D4: 39 C2                                           cmp edx, eax
0x4019D6: 0F 85 A1 00 00 00                               jnz 0xa7
0x4019DC: 8B 15 30 C0 40 00                               mov edx, dword ptr [0x40c030]
0x4019E2: A1 34 C0 40 00                                  mov eax, dword ptr [0x40c034]
0x4019E7: 39 C2                                           cmp edx, eax
0x4019E9: 0F 85 8E 00 00 00                               jnz 0x94
0x4019EF: A1 2C C0 40 00                                  mov eax, dword ptr [0x40c02c]
0x4019F4: 89 85 50 FF FF FF                               mov dword ptr [ebp-0xb0], eax
0x4019FA: A1 30 C0 40 00                                  mov eax, dword ptr [0x40c030]
0x4019FF: 89 85 4C FF FF FF                               mov dword ptr [ebp-0xb4], eax
0x401A05: 8B 85 4C FF FF FF                               mov eax, dword ptr [ebp-0xb4]
0x401A0B: 3B 85 50 FF FF FF                               cmp eax, dword ptr [ebp-0xb0]
0x401A11: 7E 6A                                           jle 0x6c
0x401A13: A1 04 80 40 00                                  mov eax, dword ptr [0x408004]
0x401A18: 83 E8 04                                        sub eax, 0x4
0x401A1B: A3 04 80 40 00                                  mov dword ptr [0x408004], eax
0x401A20: 8B 95 50 FF FF FF                               mov edx, dword ptr [ebp-0xb0]
0x401A26: 8B 85 4C FF FF FF                               mov eax, dword ptr [ebp-0xb4]
0x401A2C: 01 D0                                           add eax, edx
0x401A2E: 89 85 48 FF FF FF                               mov dword ptr [ebp-0xb8], eax
0x401A34: A1 00 C0 40 00                                  mov eax, dword ptr [0x40c000]
0x401A39: 8B 95 50 FF FF FF                               mov edx, dword ptr [ebp-0xb0]
0x401A3F: 89 14 85 04 C0 40 00                            mov dword ptr [eax*4+0x40c004], edx
0x401A46: A1 00 C0 40 00                                  mov eax, dword ptr [0x40c000]
0x401A4B: 8D 50 01                                        lea edx, ptr [eax+0x1]
0x401A4E: 8B 85 4C FF FF FF                               mov eax, dword ptr [ebp-0xb4]
0x401A54: 89 04 95 04 C0 40 00                            mov dword ptr [edx*4+0x40c004], eax
0x401A5B: A1 00 C0 40 00                                  mov eax, dword ptr [0x40c000]
0x401A60: 8D 50 02                                        lea edx, ptr [eax+0x2]
0x401A63: 8B 85 48 FF FF FF                               mov eax, dword ptr [ebp-0xb8]
0x401A69: 89 04 95 04 C0 40 00                            mov dword ptr [edx*4+0x40c004], eax
0x401A70: A1 00 C0 40 00                                  mov eax, dword ptr [0x40c000]
0x401A75: 83 C0 03                                        add eax, 0x3
0x401A78: A3 00 C0 40 00                                  mov dword ptr [0x40c000], eax
0x401A7D: A1 04 80 40 00                                  mov eax, dword ptr [0x408004]
0x401A82: 83 F8 03                                        cmp eax, 0x3
0x401A85: 0F 8E C5 00 00 00                               jle 0xcb
0x401A8B: A1 00 C0 40 00                                  mov eax, dword ptr [0x40c000]
0x401A90: 83 C0 03                                        add eax, 0x3
0x401A93: 83 F8 06                                        cmp eax, 0x6
0x401A96: 0F 8F B4 00 00 00                               jnle 0xba
0x401A9C: 8B 15 30 C0 40 00                               mov edx, dword ptr [0x40c030]
0x401AA2: A1 34 C0 40 00                                  mov eax, dword ptr [0x40c034]
0x401AA7: 39 C2                                           cmp edx, eax
0x401AA9: 0F 85 A1 00 00 00                               jnz 0xa7
0x401AAF: 8B 15 30 C0 40 00                               mov edx, dword ptr [0x40c030]
0x401AB5: A1 28 C0 40 00                                  mov eax, dword ptr [0x40c028]
0x401ABA: 39 C2                                           cmp edx, eax
0x401ABC: 0F 85 8E 00 00 00                               jnz 0x94
0x401AC2: A1 2C C0 40 00                                  mov eax, dword ptr [0x40c02c]
0x401AC7: 89 85 44 FF FF FF                               mov dword ptr [ebp-0xbc], eax
0x401ACD: A1 30 C0 40 00                                  mov eax, dword ptr [0x40c030]
0x401AD2: 89 85 40 FF FF FF                               mov dword ptr [ebp-0xc0], eax
0x401AD8: 8B 85 40 FF FF FF                               mov eax, dword ptr [ebp-0xc0]
0x401ADE: 3B 85 44 FF FF FF                               cmp eax, dword ptr [ebp-0xbc]
0x401AE4: 7E 6A                                           jle 0x6c
0x401AE6: A1 04 80 40 00                                  mov eax, dword ptr [0x408004]
0x401AEB: 83 E8 04                                        sub eax, 0x4
0x401AEE: A3 04 80 40 00                                  mov dword ptr [0x408004], eax
0x401AF3: 8B 95 44 FF FF FF                               mov edx, dword ptr [ebp-0xbc]
0x401AF9: 8B 85 40 FF FF FF                               mov eax, dword ptr [ebp-0xc0]
0x401AFF: 01 D0                                           add eax, edx
0x401B01: 89 85 3C FF FF FF                               mov dword ptr [ebp-0xc4], eax
0x401B07: A1 00 C0 40 00                                  mov eax, dword ptr [0x40c000]
0x401B0C: 8B 95 44 FF FF FF                               mov edx, dword ptr [ebp-0xbc]
0x401B12: 89 14 85 04 C0 40 00                            mov dword ptr [eax*4+0x40c004], edx
0x401B19: A1 00 C0 40 00                                  mov eax, dword ptr [0x40c000]
0x401B1E: 8D 50 01                                        lea edx, ptr [eax+0x1]
0x401B21: 8B 85 40 FF FF FF                               mov eax, dword ptr [ebp-0xc0]
0x401B27: 89 04 95 04 C0 40 00                            mov dword ptr [edx*4+0x40c004], eax
0x401B2E: A1 00 C0 40 00                                  mov eax, dword ptr [0x40c000]
0x401B33: 8D 50 02                                        lea edx, ptr [eax+0x2]
0x401B36: 8B 85 3C FF FF FF                               mov eax, dword ptr [ebp-0xc4]
0x401B3C: 89 04 95 04 C0 40 00                            mov dword ptr [edx*4+0x40c004], eax
0x401B43: A1 00 C0 40 00                                  mov eax, dword ptr [0x40c000]
0x401B48: 83 C0 03                                        add eax, 0x3
0x401B4B: A3 00 C0 40 00                                  mov dword ptr [0x40c000], eax
0x401B50: A1 04 80 40 00                                  mov eax, dword ptr [0x408004]
0x401B55: 83 F8 03                                        cmp eax, 0x3
0x401B58: 0F 8E C5 00 00 00                               jle 0xcb
0x401B5E: A1 00 C0 40 00                                  mov eax, dword ptr [0x40c000]
0x401B63: 83 C0 03                                        add eax, 0x3
0x401B66: 83 F8 06                                        cmp eax, 0x6
0x401B69: 0F 8F B4 00 00 00                               jnle 0xba
0x401B6F: 8B 15 34 C0 40 00                               mov edx, dword ptr [0x40c034]
0x401B75: A1 28 C0 40 00                                  mov eax, dword ptr [0x40c028]
0x401B7A: 39 C2                                           cmp edx, eax
0x401B7C: 0F 85 A1 00 00 00                               jnz 0xa7
0x401B82: 8B 15 34 C0 40 00                               mov edx, dword ptr [0x40c034]
0x401B88: A1 30 C0 40 00                                  mov eax, dword ptr [0x40c030]
0x401B8D: 39 C2                                           cmp edx, eax
0x401B8F: 0F 85 8E 00 00 00                               jnz 0x94
0x401B95: A1 2C C0 40 00                                  mov eax, dword ptr [0x40c02c]
0x401B9A: 89 85 38 FF FF FF                               mov dword ptr [ebp-0xc8], eax
0x401BA0: A1 34 C0 40 00                                  mov eax, dword ptr [0x40c034]
0x401BA5: 89 85 34 FF FF FF                               mov dword ptr [ebp-0xcc], eax
0x401BAB: 8B 85 34 FF FF FF                               mov eax, dword ptr [ebp-0xcc]
0x401BB1: 3B 85 38 FF FF FF                               cmp eax, dword ptr [ebp-0xc8]
0x401BB7: 7E 6A                                           jle 0x6c
0x401BB9: A1 04 80 40 00                                  mov eax, dword ptr [0x408004]
0x401BBE: 83 E8 04                                        sub eax, 0x4
0x401BC1: A3 04 80 40 00                                  mov dword ptr [0x408004], eax
0x401BC6: 8B 95 38 FF FF FF                               mov edx, dword ptr [ebp-0xc8]
0x401BCC: 8B 85 34 FF FF FF                               mov eax, dword ptr [ebp-0xcc]
0x401BD2: 01 D0                                           add eax, edx
0x401BD4: 89 85 30 FF FF FF                               mov dword ptr [ebp-0xd0], eax
0x401BDA: A1 00 C0 40 00                                  mov eax, dword ptr [0x40c000]
0x401BDF: 8B 95 38 FF FF FF                               mov edx, dword ptr [ebp-0xc8]
0x401BE5: 89 14 85 04 C0 40 00                            mov dword ptr [eax*4+0x40c004], edx
0x401BEC: A1 00 C0 40 00                                  mov eax, dword ptr [0x40c000]
0x401BF1: 8D 50 01                                        lea edx, ptr [eax+0x1]
0x401BF4: 8B 85 34 FF FF FF                               mov eax, dword ptr [ebp-0xcc]
0x401BFA: 89 04 95 04 C0 40 00                            mov dword ptr [edx*4+0x40c004], eax
0x401C01: A1 00 C0 40 00                                  mov eax, dword ptr [0x40c000]
0x401C06: 8D 50 02                                        lea edx, ptr [eax+0x2]
0x401C09: 8B 85 30 FF FF FF                               mov eax, dword ptr [ebp-0xd0]
0x401C0F: 89 04 95 04 C0 40 00                            mov dword ptr [edx*4+0x40c004], eax
0x401C16: A1 00 C0 40 00                                  mov eax, dword ptr [0x40c000]
0x401C1B: 83 C0 03                                        add eax, 0x3
0x401C1E: A3 00 C0 40 00                                  mov dword ptr [0x40c000], eax
0x401C23: A1 04 80 40 00                                  mov eax, dword ptr [0x408004]
0x401C28: 83 F8 03                                        cmp eax, 0x3
0x401C2B: 0F 8E C5 00 00 00                               jle 0xcb
0x401C31: A1 00 C0 40 00                                  mov eax, dword ptr [0x40c000]
0x401C36: 83 C0 03                                        add eax, 0x3
0x401C39: 83 F8 06                                        cmp eax, 0x6
0x401C3C: 0F 8F B4 00 00 00                               jnle 0xba
0x401C42: 8B 15 34 C0 40 00                               mov edx, dword ptr [0x40c034]
0x401C48: A1 30 C0 40 00                                  mov eax, dword ptr [0x40c030]
0x401C4D: 39 C2                                           cmp edx, eax
0x401C4F: 0F 85 A1 00 00 00                               jnz 0xa7
0x401C55: 8B 15 34 C0 40 00                               mov edx, dword ptr [0x40c034]
0x401C5B: A1 28 C0 40 00                                  mov eax, dword ptr [0x40c028]
0x401C60: 39 C2                                           cmp edx, eax
0x401C62: 0F 85 8E 00 00 00                               jnz 0x94
0x401C68: A1 2C C0 40 00                                  mov eax, dword ptr [0x40c02c]
0x401C6D: 89 85 2C FF FF FF                               mov dword ptr [ebp-0xd4], eax
0x401C73: A1 34 C0 40 00                                  mov eax, dword ptr [0x40c034]
0x401C78: 89 85 28 FF FF FF                               mov dword ptr [ebp-0xd8], eax
0x401C7E: 8B 85 28 FF FF FF                               mov eax, dword ptr [ebp-0xd8]
0x401C84: 3B 85 2C FF FF FF                               cmp eax, dword ptr [ebp-0xd4]
0x401C8A: 7E 6A                                           jle 0x6c
0x401C8C: A1 04 80 40 00                                  mov eax, dword ptr [0x408004]
0x401C91: 83 E8 04                                        sub eax, 0x4
0x401C94: A3 04 80 40 00                                  mov dword ptr [0x408004], eax
0x401C99: 8B 95 2C FF FF FF                               mov edx, dword ptr [ebp-0xd4]
0x401C9F: 8B 85 28 FF FF FF                               mov eax, dword ptr [ebp-0xd8]
0x401CA5: 01 D0                                           add eax, edx
0x401CA7: 89 85 24 FF FF FF                               mov dword ptr [ebp-0xdc], eax
0x401CAD: A1 00 C0 40 00                                  mov eax, dword ptr [0x40c000]
0x401CB2: 8B 95 2C FF FF FF                               mov edx, dword ptr [ebp-0xd4]
0x401CB8: 89 14 85 04 C0 40 00                            mov dword ptr [eax*4+0x40c004], edx
0x401CBF: A1 00 C0 40 00                                  mov eax, dword ptr [0x40c000]
0x401CC4: 8D 50 01                                        lea edx, ptr [eax+0x1]
0x401CC7: 8B 85 28 FF FF FF                               mov eax, dword ptr [ebp-0xd8]
0x401CCD: 89 04 95 04 C0 40 00                            mov dword ptr [edx*4+0x40c004], eax
0x401CD4: A1 00 C0 40 00                                  mov eax, dword ptr [0x40c000]
0x401CD9: 8D 50 02                                        lea edx, ptr [eax+0x2]
0x401CDC: 8B 85 24 FF FF FF                               mov eax, dword ptr [ebp-0xdc]
0x401CE2: 89 04 95 04 C0 40 00                            mov dword ptr [edx*4+0x40c004], eax
0x401CE9: A1 00 C0 40 00                                  mov eax, dword ptr [0x40c000]
0x401CEE: 83 C0 03                                        add eax, 0x3
0x401CF1: A3 00 C0 40 00                                  mov dword ptr [0x40c000], eax
0x401CF6: A1 04 80 40 00                                  mov eax, dword ptr [0x408004]
0x401CFB: 83 F8 03                                        cmp eax, 0x3
0x401CFE: 0F 8E C5 00 00 00                               jle 0xcb
0x401D04: A1 00 C0 40 00                                  mov eax, dword ptr [0x40c000]
0x401D09: 83 C0 03                                        add eax, 0x3
0x401D0C: 83 F8 06                                        cmp eax, 0x6
0x401D0F: 0F 8F B4 00 00 00                               jnle 0xba
0x401D15: 8B 15 28 C0 40 00                               mov edx, dword ptr [0x40c028]
0x401D1B: A1 2C C0 40 00                                  mov eax, dword ptr [0x40c02c]
0x401D20: 39 C2                                           cmp edx, eax
0x401D22: 0F 85 A1 00 00 00                               jnz 0xa7
0x401D28: 8B 15 28 C0 40 00                               mov edx, dword ptr [0x40c028]
0x401D2E: A1 34 C0 40 00                                  mov eax, dword ptr [0x40c034]
0x401D33: 39 C2                                           cmp edx, eax
0x401D35: 0F 85 8E 00 00 00                               jnz 0x94
0x401D3B: A1 30 C0 40 00                                  mov eax, dword ptr [0x40c030]
0x401D40: 89 85 20 FF FF FF                               mov dword ptr [ebp-0xe0], eax
0x401D46: A1 28 C0 40 00                                  mov eax, dword ptr [0x40c028]
0x401D4B: 89 85 1C FF FF FF                               mov dword ptr [ebp-0xe4], eax
0x401D51: 8B 85 1C FF FF FF                               mov eax, dword ptr [ebp-0xe4]
0x401D57: 3B 85 20 FF FF FF                               cmp eax, dword ptr [ebp-0xe0]
0x401D5D: 7E 6A                                           jle 0x6c
0x401D5F: A1 04 80 40 00                                  mov eax, dword ptr [0x408004]
0x401D64: 83 E8 04                                        sub eax, 0x4
0x401D67: A3 04 80 40 00                                  mov dword ptr [0x408004], eax
0x401D6C: 8B 95 20 FF FF FF                               mov edx, dword ptr [ebp-0xe0]
0x401D72: 8B 85 1C FF FF FF                               mov eax, dword ptr [ebp-0xe4]
0x401D78: 01 D0                                           add eax, edx
0x401D7A: 89 85 18 FF FF FF                               mov dword ptr [ebp-0xe8], eax
0x401D80: A1 00 C0 40 00                                  mov eax, dword ptr [0x40c000]
0x401D85: 8B 95 20 FF FF FF                               mov edx, dword ptr [ebp-0xe0]
0x401D8B: 89 14 85 04 C0 40 00                            mov dword ptr [eax*4+0x40c004], edx
0x401D92: A1 00 C0 40 00                                  mov eax, dword ptr [0x40c000]
0x401D97: 8D 50 01                                        lea edx, ptr [eax+0x1]
0x401D9A: 8B 85 1C FF FF FF                               mov eax, dword ptr [ebp-0xe4]
0x401DA0: 89 04 95 04 C0 40 00                            mov dword ptr [edx*4+0x40c004], eax
0x401DA7: A1 00 C0 40 00                                  mov eax, dword ptr [0x40c000]
0x401DAC: 8D 50 02                                        lea edx, ptr [eax+0x2]
0x401DAF: 8B 85 18 FF FF FF                               mov eax, dword ptr [ebp-0xe8]
0x401DB5: 89 04 95 04 C0 40 00                            mov dword ptr [edx*4+0x40c004], eax
0x401DBC: A1 00 C0 40 00                                  mov eax, dword ptr [0x40c000]
0x401DC1: 83 C0 03                                        add eax, 0x3
0x401DC4: A3 00 C0 40 00                                  mov dword ptr [0x40c000], eax
0x401DC9: A1 04 80 40 00                                  mov eax, dword ptr [0x408004]
0x401DCE: 83 F8 03                                        cmp eax, 0x3
0x401DD1: 0F 8E C5 00 00 00                               jle 0xcb
0x401DD7: A1 00 C0 40 00                                  mov eax, dword ptr [0x40c000]
0x401DDC: 83 C0 03                                        add eax, 0x3
0x401DDF: 83 F8 06                                        cmp eax, 0x6
0x401DE2: 0F 8F B4 00 00 00                               jnle 0xba
0x401DE8: 8B 15 28 C0 40 00                               mov edx, dword ptr [0x40c028]
0x401DEE: A1 34 C0 40 00                                  mov eax, dword ptr [0x40c034]
0x401DF3: 39 C2                                           cmp edx, eax
0x401DF5: 0F 85 A1 00 00 00                               jnz 0xa7
0x401DFB: 8B 15 28 C0 40 00                               mov edx, dword ptr [0x40c028]
0x401E01: A1 2C C0 40 00                                  mov eax, dword ptr [0x40c02c]
0x401E06: 39 C2                                           cmp edx, eax
0x401E08: 0F 85 8E 00 00 00                               jnz 0x94
0x401E0E: A1 30 C0 40 00                                  mov eax, dword ptr [0x40c030]
0x401E13: 89 85 14 FF FF FF                               mov dword ptr [ebp-0xec], eax
0x401E19: A1 28 C0 40 00                                  mov eax, dword ptr [0x40c028]
0x401E1E: 89 85 10 FF FF FF                               mov dword ptr [ebp-0xf0], eax
0x401E24: 8B 85 10 FF FF FF                               mov eax, dword ptr [ebp-0xf0]
0x401E2A: 3B 85 14 FF FF FF                               cmp eax, dword ptr [ebp-0xec]
0x401E30: 7E 6A                                           jle 0x6c
0x401E32: A1 04 80 40 00                                  mov eax, dword ptr [0x408004]
0x401E37: 83 E8 04                                        sub eax, 0x4
0x401E3A: A3 04 80 40 00                                  mov dword ptr [0x408004], eax
0x401E3F: 8B 95 14 FF FF FF                               mov edx, dword ptr [ebp-0xec]
0x401E45: 8B 85 10 FF FF FF                               mov eax, dword ptr [ebp-0xf0]
0x401E4B: 01 D0                                           add eax, edx
0x401E4D: 89 85 0C FF FF FF                               mov dword ptr [ebp-0xf4], eax
0x401E53: A1 00 C0 40 00                                  mov eax, dword ptr [0x40c000]
0x401E58: 8B 95 14 FF FF FF                               mov edx, dword ptr [ebp-0xec]
0x401E5E: 89 14 85 04 C0 40 00                            mov dword ptr [eax*4+0x40c004], edx
0x401E65: A1 00 C0 40 00                                  mov eax, dword ptr [0x40c000]
0x401E6A: 8D 50 01                                        lea edx, ptr [eax+0x1]
0x401E6D: 8B 85 10 FF FF FF                               mov eax, dword ptr [ebp-0xf0]
0x401E73: 89 04 95 04 C0 40 00                            mov dword ptr [edx*4+0x40c004], eax
0x401E7A: A1 00 C0 40 00                                  mov eax, dword ptr [0x40c000]
0x401E7F: 8D 50 02                                        lea edx, ptr [eax+0x2]
0x401E82: 8B 85 0C FF FF FF                               mov eax, dword ptr [ebp-0xf4]
0x401E88: 89 04 95 04 C0 40 00                            mov dword ptr [edx*4+0x40c004], eax
0x401E8F: A1 00 C0 40 00                                  mov eax, dword ptr [0x40c000]
0x401E94: 83 C0 03                                        add eax, 0x3
0x401E97: A3 00 C0 40 00                                  mov dword ptr [0x40c000], eax
0x401E9C: A1 04 80 40 00                                  mov eax, dword ptr [0x408004]
0x401EA1: 83 F8 03                                        cmp eax, 0x3
0x401EA4: 0F 8E C5 00 00 00                               jle 0xcb
0x401EAA: A1 00 C0 40 00                                  mov eax, dword ptr [0x40c000]
0x401EAF: 83 C0 03                                        add eax, 0x3
0x401EB2: 83 F8 06                                        cmp eax, 0x6
0x401EB5: 0F 8F B4 00 00 00                               jnle 0xba
0x401EBB: 8B 15 2C C0 40 00                               mov edx, dword ptr [0x40c02c]
0x401EC1: A1 28 C0 40 00                                  mov eax, dword ptr [0x40c028]
0x401EC6: 39 C2                                           cmp edx, eax
0x401EC8: 0F 85 A1 00 00 00                               jnz 0xa7
0x401ECE: 8B 15 2C C0 40 00                               mov edx, dword ptr [0x40c02c]
0x401ED4: A1 34 C0 40 00                                  mov eax, dword ptr [0x40c034]
0x401ED9: 39 C2                                           cmp edx, eax
0x401EDB: 0F 85 8E 00 00 00                               jnz 0x94
0x401EE1: A1 30 C0 40 00                                  mov eax, dword ptr [0x40c030]
0x401EE6: 89 85 08 FF FF FF                               mov dword ptr [ebp-0xf8], eax
0x401EEC: A1 2C C0 40 00                                  mov eax, dword ptr [0x40c02c]
0x401EF1: 89 85 04 FF FF FF                               mov dword ptr [ebp-0xfc], eax
0x401EF7: 8B 85 04 FF FF FF                               mov eax, dword ptr [ebp-0xfc]
0x401EFD: 3B 85 08 FF FF FF                               cmp eax, dword ptr [ebp-0xf8]
0x401F03: 7E 6A                                           jle 0x6c
0x401F05: A1 04 80 40 00                                  mov eax, dword ptr [0x408004]
0x401F0A: 83 E8 04                                        sub eax, 0x4
0x401F0D: A3 04 80 40 00                                  mov dword ptr [0x408004], eax
0x401F12: 8B 95 08 FF FF FF                               mov edx, dword ptr [ebp-0xf8]
0x401F18: 8B 85 04 FF FF FF                               mov eax, dword ptr [ebp-0xfc]
0x401F1E: 01 D0                                           add eax, edx
0x401F20: 89 85 00 FF FF FF                               mov dword ptr [ebp-0x100], eax
0x401F26: A1 00 C0 40 00                                  mov eax, dword ptr [0x40c000]
0x401F2B: 8B 95 08 FF FF FF                               mov edx, dword ptr [ebp-0xf8]
0x401F31: 89 14 85 04 C0 40 00                            mov dword ptr [eax*4+0x40c004], edx
0x401F38: A1 00 C0 40 00                                  mov eax, dword ptr [0x40c000]
0x401F3D: 8D 50 01                                        lea edx, ptr [eax+0x1]
0x401F40: 8B 85 04 FF FF FF                               mov eax, dword ptr [ebp-0xfc]
0x401F46: 89 04 95 04 C0 40 00                            mov dword ptr [edx*4+0x40c004], eax
0x401F4D: A1 00 C0 40 00                                  mov eax, dword ptr [0x40c000]
0x401F52: 8D 50 02                                        lea edx, ptr [eax+0x2]
0x401F55: 8B 85 00 FF FF FF                               mov eax, dword ptr [ebp-0x100]
0x401F5B: 89 04 95 04 C0 40 00                            mov dword ptr [edx*4+0x40c004], eax
0x401F62: A1 00 C0 40 00                                  mov eax, dword ptr [0x40c000]
0x401F67: 83 C0 03                                        add eax, 0x3
0x401F6A: A3 00 C0 40 00                                  mov dword ptr [0x40c000], eax
0x401F6F: A1 04 80 40 00                                  mov eax, dword ptr [0x408004]
0x401F74: 83 F8 03                                        cmp eax, 0x3
0x401F77: 0F 8E C5 00 00 00                               jle 0xcb
0x401F7D: A1 00 C0 40 00                                  mov eax, dword ptr [0x40c000]
0x401F82: 83 C0 03                                        add eax, 0x3
0x401F85: 83 F8 06                                        cmp eax, 0x6
0x401F88: 0F 8F B4 00 00 00                               jnle 0xba
0x401F8E: 8B 15 2C C0 40 00                               mov edx, dword ptr [0x40c02c]
0x401F94: A1 34 C0 40 00                                  mov eax, dword ptr [0x40c034]
0x401F99: 39 C2                                           cmp edx, eax
0x401F9B: 0F 85 A1 00 00 00                               jnz 0xa7
0x401FA1: 8B 15 2C C0 40 00                               mov edx, dword ptr [0x40c02c]
0x401FA7: A1 28 C0 40 00                                  mov eax, dword ptr [0x40c028]
0x401FAC: 39 C2                                           cmp edx, eax
0x401FAE: 0F 85 8E 00 00 00                               jnz 0x94
0x401FB4: A1 30 C0 40 00                                  mov eax, dword ptr [0x40c030]
0x401FB9: 89 85 FC FE FF FF                               mov dword ptr [ebp-0x104], eax
0x401FBF: A1 2C C0 40 00                                  mov eax, dword ptr [0x40c02c]
0x401FC4: 89 85 F8 FE FF FF                               mov dword ptr [ebp-0x108], eax
0x401FCA: 8B 85 F8 FE FF FF                               mov eax, dword ptr [ebp-0x108]
0x401FD0: 3B 85 FC FE FF FF                               cmp eax, dword ptr [ebp-0x104]
0x401FD6: 7E 6A                                           jle 0x6c
0x401FD8: A1 04 80 40 00                                  mov eax, dword ptr [0x408004]
0x401FDD: 83 E8 04                                        sub eax, 0x4
0x401FE0: A3 04 80 40 00                                  mov dword ptr [0x408004], eax
0x401FE5: 8B 95 FC FE FF FF                               mov edx, dword ptr [ebp-0x104]
0x401FEB: 8B 85 F8 FE FF FF                               mov eax, dword ptr [ebp-0x108]
0x401FF1: 01 D0                                           add eax, edx
0x401FF3: 89 85 F4 FE FF FF                               mov dword ptr [ebp-0x10c], eax
0x401FF9: A1 00 C0 40 00                                  mov eax, dword ptr [0x40c000]
0x401FFE: 8B 95 FC FE FF FF                               mov edx, dword ptr [ebp-0x104]
0x402004: 89 14 85 04 C0 40 00                            mov dword ptr [eax*4+0x40c004], edx
0x40200B: A1 00 C0 40 00                                  mov eax, dword ptr [0x40c000]
0x402010: 8D 50 01                                        lea edx, ptr [eax+0x1]
0x402013: 8B 85 F8 FE FF FF                               mov eax, dword ptr [ebp-0x108]
0x402019: 89 04 95 04 C0 40 00                            mov dword ptr [edx*4+0x40c004], eax
0x402020: A1 00 C0 40 00                                  mov eax, dword ptr [0x40c000]
0x402025: 8D 50 02                                        lea edx, ptr [eax+0x2]
0x402028: 8B 85 F4 FE FF FF                               mov eax, dword ptr [ebp-0x10c]
0x40202E: 89 04 95 04 C0 40 00                            mov dword ptr [edx*4+0x40c004], eax
0x402035: A1 00 C0 40 00                                  mov eax, dword ptr [0x40c000]
0x40203A: 83 C0 03                                        add eax, 0x3
0x40203D: A3 00 C0 40 00                                  mov dword ptr [0x40c000], eax
0x402042: A1 04 80 40 00                                  mov eax, dword ptr [0x408004]
0x402047: 83 F8 03                                        cmp eax, 0x3
0x40204A: 0F 8E C5 00 00 00                               jle 0xcb
0x402050: A1 00 C0 40 00                                  mov eax, dword ptr [0x40c000]
0x402055: 83 C0 03                                        add eax, 0x3
0x402058: 83 F8 06                                        cmp eax, 0x6
0x40205B: 0F 8F B4 00 00 00                               jnle 0xba
0x402061: 8B 15 34 C0 40 00                               mov edx, dword ptr [0x40c034]
0x402067: A1 28 C0 40 00                                  mov eax, dword ptr [0x40c028]
0x40206C: 39 C2                                           cmp edx, eax
0x40206E: 0F 85 A1 00 00 00                               jnz 0xa7
0x402074: 8B 15 34 C0 40 00                               mov edx, dword ptr [0x40c034]
0x40207A: A1 2C C0 40 00                                  mov eax, dword ptr [0x40c02c]
0x40207F: 39 C2                                           cmp edx, eax
0x402081: 0F 85 8E 00 00 00                               jnz 0x94
0x402087: A1 30 C0 40 00                                  mov eax, dword ptr [0x40c030]
0x40208C: 89 85 F0 FE FF FF                               mov dword ptr [ebp-0x110], eax
0x402092: A1 34 C0 40 00                                  mov eax, dword ptr [0x40c034]
0x402097: 89 85 EC FE FF FF                               mov dword ptr [ebp-0x114], eax
0x40209D: 8B 85 EC FE FF FF                               mov eax, dword ptr [ebp-0x114]
0x4020A3: 3B 85 F0 FE FF FF                               cmp eax, dword ptr [ebp-0x110]
0x4020A9: 7E 6A                                           jle 0x6c
0x4020AB: A1 04 80 40 00                                  mov eax, dword ptr [0x408004]
0x4020B0: 83 E8 04                                        sub eax, 0x4
0x4020B3: A3 04 80 40 00                                  mov dword ptr [0x408004], eax
0x4020B8: 8B 95 F0 FE FF FF                               mov edx, dword ptr [ebp-0x110]
0x4020BE: 8B 85 EC FE FF FF                               mov eax, dword ptr [ebp-0x114]
0x4020C4: 01 D0                                           add eax, edx
0x4020C6: 89 85 E8 FE FF FF                               mov dword ptr [ebp-0x118], eax
0x4020CC: A1 00 C0 40 00                                  mov eax, dword ptr [0x40c000]
0x4020D1: 8B 95 F0 FE FF FF                               mov edx, dword ptr [ebp-0x110]
0x4020D7: 89 14 85 04 C0 40 00                            mov dword ptr [eax*4+0x40c004], edx
0x4020DE: A1 00 C0 40 00                                  mov eax, dword ptr [0x40c000]
0x4020E3: 8D 50 01                                        lea edx, ptr [eax+0x1]
0x4020E6: 8B 85 EC FE FF FF                               mov eax, dword ptr [ebp-0x114]
0x4020EC: 89 04 95 04 C0 40 00                            mov dword ptr [edx*4+0x40c004], eax
0x4020F3: A1 00 C0 40 00                                  mov eax, dword ptr [0x40c000]
0x4020F8: 8D 50 02                                        lea edx, ptr [eax+0x2]
0x4020FB: 8B 85 E8 FE FF FF                               mov eax, dword ptr [ebp-0x118]
0x402101: 89 04 95 04 C0 40 00                            mov dword ptr [edx*4+0x40c004], eax
0x402108: A1 00 C0 40 00                                  mov eax, dword ptr [0x40c000]
0x40210D: 83 C0 03                                        add eax, 0x3
0x402110: A3 00 C0 40 00                                  mov dword ptr [0x40c000], eax
0x402115: A1 04 80 40 00                                  mov eax, dword ptr [0x408004]
0x40211A: 83 F8 03                                        cmp eax, 0x3
0x40211D: 0F 8E C5 00 00 00                               jle 0xcb
0x402123: A1 00 C0 40 00                                  mov eax, dword ptr [0x40c000]
0x402128: 83 C0 03                                        add eax, 0x3
0x40212B: 83 F8 06                                        cmp eax, 0x6
0x40212E: 0F 8F B4 00 00 00                               jnle 0xba
0x402134: 8B 15 34 C0 40 00                               mov edx, dword ptr [0x40c034]
0x40213A: A1 2C C0 40 00                                  mov eax, dword ptr [0x40c02c]
0x40213F: 39 C2                                           cmp edx, eax
0x402141: 0F 85 A1 00 00 00                               jnz 0xa7
0x402147: 8B 15 34 C0 40 00                               mov edx, dword ptr [0x40c034]
0x40214D: A1 28 C0 40 00                                  mov eax, dword ptr [0x40c028]
0x402152: 39 C2                                           cmp edx, eax
0x402154: 0F 85 8E 00 00 00                               jnz 0x94
0x40215A: A1 30 C0 40 00                                  mov eax, dword ptr [0x40c030]
0x40215F: 89 85 E4 FE FF FF                               mov dword ptr [ebp-0x11c], eax
0x402165: A1 34 C0 40 00                                  mov eax, dword ptr [0x40c034]
0x40216A: 89 85 E0 FE FF FF                               mov dword ptr [ebp-0x120], eax
0x402170: 8B 85 E0 FE FF FF                               mov eax, dword ptr [ebp-0x120]
0x402176: 3B 85 E4 FE FF FF                               cmp eax, dword ptr [ebp-0x11c]
0x40217C: 7E 6A                                           jle 0x6c
0x40217E: A1 04 80 40 00                                  mov eax, dword ptr [0x408004]
0x402183: 83 E8 04                                        sub eax, 0x4
0x402186: A3 04 80 40 00                                  mov dword ptr [0x408004], eax
0x40218B: 8B 95 E4 FE FF FF                               mov edx, dword ptr [ebp-0x11c]
0x402191: 8B 85 E0 FE FF FF                               mov eax, dword ptr [ebp-0x120]
0x402197: 01 D0                                           add eax, edx
0x402199: 89 85 DC FE FF FF                               mov dword ptr [ebp-0x124], eax
0x40219F: A1 00 C0 40 00                                  mov eax, dword ptr [0x40c000]
0x4021A4: 8B 95 E4 FE FF FF                               mov edx, dword ptr [ebp-0x11c]
0x4021AA: 89 14 85 04 C0 40 00                            mov dword ptr [eax*4+0x40c004], edx
0x4021B1: A1 00 C0 40 00                                  mov eax, dword ptr [0x40c000]
0x4021B6: 8D 50 01                                        lea edx, ptr [eax+0x1]
0x4021B9: 8B 85 E0 FE FF FF                               mov eax, dword ptr [ebp-0x120]
0x4021BF: 89 04 95 04 C0 40 00                            mov dword ptr [edx*4+0x40c004], eax
0x4021C6: A1 00 C0 40 00                                  mov eax, dword ptr [0x40c000]
0x4021CB: 8D 50 02                                        lea edx, ptr [eax+0x2]
0x4021CE: 8B 85 DC FE FF FF                               mov eax, dword ptr [ebp-0x124]
0x4021D4: 89 04 95 04 C0 40 00                            mov dword ptr [edx*4+0x40c004], eax
0x4021DB: A1 00 C0 40 00                                  mov eax, dword ptr [0x40c000]
0x4021E0: 83 C0 03                                        add eax, 0x3
0x4021E3: A3 00 C0 40 00                                  mov dword ptr [0x40c000], eax
0x4021E8: A1 04 80 40 00                                  mov eax, dword ptr [0x408004]
0x4021ED: 83 F8 03                                        cmp eax, 0x3
0x4021F0: 0F 8E C5 00 00 00                               jle 0xcb
0x4021F6: A1 00 C0 40 00                                  mov eax, dword ptr [0x40c000]
0x4021FB: 83 C0 03                                        add eax, 0x3
0x4021FE: 83 F8 06                                        cmp eax, 0x6
0x402201: 0F 8F B4 00 00 00                               jnle 0xba
0x402207: 8B 15 28 C0 40 00                               mov edx, dword ptr [0x40c028]
0x40220D: A1 2C C0 40 00                                  mov eax, dword ptr [0x40c02c]
0x402212: 39 C2                                           cmp edx, eax
0x402214: 0F 85 A1 00 00 00                               jnz 0xa7
0x40221A: 8B 15 28 C0 40 00                               mov edx, dword ptr [0x40c028]
0x402220: A1 30 C0 40 00                                  mov eax, dword ptr [0x40c030]
0x402225: 39 C2                                           cmp edx, eax
0x402227: 0F 85 8E 00 00 00                               jnz 0x94
0x40222D: A1 34 C0 40 00                                  mov eax, dword ptr [0x40c034]
0x402232: 89 85 D8 FE FF FF                               mov dword ptr [ebp-0x128], eax
0x402238: A1 28 C0 40 00                                  mov eax, dword ptr [0x40c028]
0x40223D: 89 85 D4 FE FF FF                               mov dword ptr [ebp-0x12c], eax
0x402243: 8B 85 D4 FE FF FF                               mov eax, dword ptr [ebp-0x12c]
0x402249: 3B 85 D8 FE FF FF                               cmp eax, dword ptr [ebp-0x128]
0x40224F: 7E 6A                                           jle 0x6c
0x402251: A1 04 80 40 00                                  mov eax, dword ptr [0x408004]
0x402256: 83 E8 04                                        sub eax, 0x4
0x402259: A3 04 80 40 00                                  mov dword ptr [0x408004], eax
0x40225E: 8B 95 D8 FE FF FF                               mov edx, dword ptr [ebp-0x128]
0x402264: 8B 85 D4 FE FF FF                               mov eax, dword ptr [ebp-0x12c]
0x40226A: 01 D0                                           add eax, edx
0x40226C: 89 85 D0 FE FF FF                               mov dword ptr [ebp-0x130], eax
0x402272: A1 00 C0 40 00                                  mov eax, dword ptr [0x40c000]
0x402277: 8B 95 D8 FE FF FF                               mov edx, dword ptr [ebp-0x128]
0x40227D: 89 14 85 04 C0 40 00                            mov dword ptr [eax*4+0x40c004], edx
0x402284: A1 00 C0 40 00                                  mov eax, dword ptr [0x40c000]
0x402289: 8D 50 01                                        lea edx, ptr [eax+0x1]
0x40228C: 8B 85 D4 FE FF FF                               mov eax, dword ptr [ebp-0x12c]
0x402292: 89 04 95 04 C0 40 00                            mov dword ptr [edx*4+0x40c004], eax
0x402299: A1 00 C0 40 00                                  mov eax, dword ptr [0x40c000]
0x40229E: 8D 50 02                                        lea edx, ptr [eax+0x2]
0x4022A1: 8B 85 D0 FE FF FF                               mov eax, dword ptr [ebp-0x130]
0x4022A7: 89 04 95 04 C0 40 00                            mov dword ptr [edx*4+0x40c004], eax
0x4022AE: A1 00 C0 40 00                                  mov eax, dword ptr [0x40c000]
0x4022B3: 83 C0 03                                        add eax, 0x3
0x4022B6: A3 00 C0 40 00                                  mov dword ptr [0x40c000], eax
0x4022BB: A1 04 80 40 00                                  mov eax, dword ptr [0x408004]
0x4022C0: 83 F8 03                                        cmp eax, 0x3
0x4022C3: 0F 8E C5 00 00 00                               jle 0xcb
0x4022C9: A1 00 C0 40 00                                  mov eax, dword ptr [0x40c000]
0x4022CE: 83 C0 03                                        add eax, 0x3
0x4022D1: 83 F8 06                                        cmp eax, 0x6
0x4022D4: 0F 8F B4 00 00 00                               jnle 0xba
0x4022DA: 8B 15 28 C0 40 00                               mov edx, dword ptr [0x40c028]
0x4022E0: A1 30 C0 40 00                                  mov eax, dword ptr [0x40c030]
0x4022E5: 39 C2                                           cmp edx, eax
0x4022E7: 0F 85 A1 00 00 00                               jnz 0xa7
0x4022ED: 8B 15 28 C0 40 00                               mov edx, dword ptr [0x40c028]
0x4022F3: A1 2C C0 40 00                                  mov eax, dword ptr [0x40c02c]
0x4022F8: 39 C2                                           cmp edx, eax
0x4022FA: 0F 85 8E 00 00 00                               jnz 0x94
0x402300: A1 34 C0 40 00                                  mov eax, dword ptr [0x40c034]
0x402305: 89 85 CC FE FF FF                               mov dword ptr [ebp-0x134], eax
0x40230B: A1 28 C0 40 00                                  mov eax, dword ptr [0x40c028]
0x402310: 89 85 C8 FE FF FF                               mov dword ptr [ebp-0x138], eax
0x402316: 8B 85 C8 FE FF FF                               mov eax, dword ptr [ebp-0x138]
0x40231C: 3B 85 CC FE FF FF                               cmp eax, dword ptr [ebp-0x134]
0x402322: 7E 6A                                           jle 0x6c
0x402324: A1 04 80 40 00                                  mov eax, dword ptr [0x408004]
0x402329: 83 E8 04                                        sub eax, 0x4
0x40232C: A3 04 80 40 00                                  mov dword ptr [0x408004], eax
0x402331: 8B 95 CC FE FF FF                               mov edx, dword ptr [ebp-0x134]
0x402337: 8B 85 C8 FE FF FF                               mov eax, dword ptr [ebp-0x138]
0x40233D: 01 D0                                           add eax, edx
0x40233F: 89 85 C4 FE FF FF                               mov dword ptr [ebp-0x13c], eax
0x402345: A1 00 C0 40 00                                  mov eax, dword ptr [0x40c000]
0x40234A: 8B 95 CC FE FF FF                               mov edx, dword ptr [ebp-0x134]
0x402350: 89 14 85 04 C0 40 00                            mov dword ptr [eax*4+0x40c004], edx
0x402357: A1 00 C0 40 00                                  mov eax, dword ptr [0x40c000]
0x40235C: 8D 50 01                                        lea edx, ptr [eax+0x1]
0x40235F: 8B 85 C8 FE FF FF                               mov eax, dword ptr [ebp-0x138]
0x402365: 89 04 95 04 C0 40 00                            mov dword ptr [edx*4+0x40c004], eax
0x40236C: A1 00 C0 40 00                                  mov eax, dword ptr [0x40c000]
0x402371: 8D 50 02                                        lea edx, ptr [eax+0x2]
0x402374: 8B 85 C4 FE FF FF                               mov eax, dword ptr [ebp-0x13c]
0x40237A: 89 04 95 04 C0 40 00                            mov dword ptr [edx*4+0x40c004], eax
0x402381: A1 00 C0 40 00                                  mov eax, dword ptr [0x40c000]
0x402386: 83 C0 03                                        add eax, 0x3
0x402389: A3 00 C0 40 00                                  mov dword ptr [0x40c000], eax
0x40238E: A1 04 80 40 00                                  mov eax, dword ptr [0x408004]
0x402393: 83 F8 03                                        cmp eax, 0x3
0x402396: 0F 8E C5 00 00 00                               jle 0xcb
0x40239C: A1 00 C0 40 00                                  mov eax, dword ptr [0x40c000]
0x4023A1: 83 C0 03                                        add eax, 0x3
0x4023A4: 83 F8 06                                        cmp eax, 0x6
0x4023A7: 0F 8F B4 00 00 00                               jnle 0xba
0x4023AD: 8B 15 2C C0 40 00                               mov edx, dword ptr [0x40c02c]
0x4023B3: A1 28 C0 40 00                                  mov eax, dword ptr [0x40c028]
0x4023B8: 39 C2                                           cmp edx, eax
0x4023BA: 0F 85 A1 00 00 00                               jnz 0xa7
0x4023C0: 8B 15 2C C0 40 00                               mov edx, dword ptr [0x40c02c]
0x4023C6: A1 30 C0 40 00                                  mov eax, dword ptr [0x40c030]
0x4023CB: 39 C2                                           cmp edx, eax
0x4023CD: 0F 85 8E 00 00 00                               jnz 0x94
0x4023D3: A1 34 C0 40 00                                  mov eax, dword ptr [0x40c034]
0x4023D8: 89 85 C0 FE FF FF                               mov dword ptr [ebp-0x140], eax
0x4023DE: A1 2C C0 40 00                                  mov eax, dword ptr [0x40c02c]
0x4023E3: 89 85 BC FE FF FF                               mov dword ptr [ebp-0x144], eax
0x4023E9: 8B 85 BC FE FF FF                               mov eax, dword ptr [ebp-0x144]
0x4023EF: 3B 85 C0 FE FF FF                               cmp eax, dword ptr [ebp-0x140]
0x4023F5: 7E 6A                                           jle 0x6c
0x4023F7: A1 04 80 40 00                                  mov eax, dword ptr [0x408004]
0x4023FC: 83 E8 04                                        sub eax, 0x4
0x4023FF: A3 04 80 40 00                                  mov dword ptr [0x408004], eax
0x402404: 8B 95 C0 FE FF FF                               mov edx, dword ptr [ebp-0x140]
0x40240A: 8B 85 BC FE FF FF                               mov eax, dword ptr [ebp-0x144]
0x402410: 01 D0                                           add eax, edx
0x402412: 89 85 B8 FE FF FF                               mov dword ptr [ebp-0x148], eax
0x402418: A1 00 C0 40 00                                  mov eax, dword ptr [0x40c000]
0x40241D: 8B 95 C0 FE FF FF                               mov edx, dword ptr [ebp-0x140]
0x402423: 89 14 85 04 C0 40 00                            mov dword ptr [eax*4+0x40c004], edx
0x40242A: A1 00 C0 40 00                                  mov eax, dword ptr [0x40c000]
0x40242F: 8D 50 01                                        lea edx, ptr [eax+0x1]
0x402432: 8B 85 BC FE FF FF                               mov eax, dword ptr [ebp-0x144]
0x402438: 89 04 95 04 C0 40 00                            mov dword ptr [edx*4+0x40c004], eax
0x40243F: A1 00 C0 40 00                                  mov eax, dword ptr [0x40c000]
0x402444: 8D 50 02                                        lea edx, ptr [eax+0x2]
0x402447: 8B 85 B8 FE FF FF                               mov eax, dword ptr [ebp-0x148]
0x40244D: 89 04 95 04 C0 40 00                            mov dword ptr [edx*4+0x40c004], eax
0x402454: A1 00 C0 40 00                                  mov eax, dword ptr [0x40c000]
0x402459: 83 C0 03                                        add eax, 0x3
0x40245C: A3 00 C0 40 00                                  mov dword ptr [0x40c000], eax
0x402461: A1 04 80 40 00                                  mov eax, dword ptr [0x408004]
0x402466: 83 F8 03                                        cmp eax, 0x3
0x402469: 0F 8E C5 00 00 00                               jle 0xcb
0x40246F: A1 00 C0 40 00                                  mov eax, dword ptr [0x40c000]
0x402474: 83 C0 03                                        add eax, 0x3
0x402477: 83 F8 06                                        cmp eax, 0x6
0x40247A: 0F 8F B4 00 00 00                               jnle 0xba
0x402480: 8B 15 2C C0 40 00                               mov edx, dword ptr [0x40c02c]
0x402486: A1 30 C0 40 00                                  mov eax, dword ptr [0x40c030]
0x40248B: 39 C2                                           cmp edx, eax
0x40248D: 0F 85 A1 00 00 00                               jnz 0xa7
0x402493: 8B 15 2C C0 40 00                               mov edx, dword ptr [0x40c02c]
0x402499: A1 28 C0 40 00                                  mov eax, dword ptr [0x40c028]
0x40249E: 39 C2                                           cmp edx, eax
0x4024A0: 0F 85 8E 00 00 00                               jnz 0x94
0x4024A6: A1 34 C0 40 00                                  mov eax, dword ptr [0x40c034]
0x4024AB: 89 85 B4 FE FF FF                               mov dword ptr [ebp-0x14c], eax
0x4024B1: A1 2C C0 40 00                                  mov eax, dword ptr [0x40c02c]
0x4024B6: 89 85 B0 FE FF FF                               mov dword ptr [ebp-0x150], eax
0x4024BC: 8B 85 B0 FE FF FF                               mov eax, dword ptr [ebp-0x150]
0x4024C2: 3B 85 B4 FE FF FF                               cmp eax, dword ptr [ebp-0x14c]
0x4024C8: 7E 6A                                           jle 0x6c
0x4024CA: A1 04 80 40 00                                  mov eax, dword ptr [0x408004]
0x4024CF: 83 E8 04                                        sub eax, 0x4
0x4024D2: A3 04 80 40 00                                  mov dword ptr [0x408004], eax
0x4024D7: 8B 95 B4 FE FF FF                               mov edx, dword ptr [ebp-0x14c]
0x4024DD: 8B 85 B0 FE FF FF                               mov eax, dword ptr [ebp-0x150]
0x4024E3: 01 D0                                           add eax, edx
0x4024E5: 89 85 AC FE FF FF                               mov dword ptr [ebp-0x154], eax
0x4024EB: A1 00 C0 40 00                                  mov eax, dword ptr [0x40c000]
0x4024F0: 8B 95 B4 FE FF FF                               mov edx, dword ptr [ebp-0x14c]
0x4024F6: 89 14 85 04 C0 40 00                            mov dword ptr [eax*4+0x40c004], edx
0x4024FD: A1 00 C0 40 00                                  mov eax, dword ptr [0x40c000]
0x402502: 8D 50 01                                        lea edx, ptr [eax+0x1]
0x402505: 8B 85 B0 FE FF FF                               mov eax, dword ptr [ebp-0x150]
0x40250B: 89 04 95 04 C0 40 00                            mov dword ptr [edx*4+0x40c004], eax
0x402512: A1 00 C0 40 00                                  mov eax, dword ptr [0x40c000]
0x402517: 8D 50 02                                        lea edx, ptr [eax+0x2]
0x40251A: 8B 85 AC FE FF FF                               mov eax, dword ptr [ebp-0x154]
0x402520: 89 04 95 04 C0 40 00                            mov dword ptr [edx*4+0x40c004], eax
0x402527: A1 00 C0 40 00                                  mov eax, dword ptr [0x40c000]
0x40252C: 83 C0 03                                        add eax, 0x3
0x40252F: A3 00 C0 40 00                                  mov dword ptr [0x40c000], eax
0x402534: A1 04 80 40 00                                  mov eax, dword ptr [0x408004]
0x402539: 83 F8 03                                        cmp eax, 0x3
0x40253C: 0F 8E C5 00 00 00                               jle 0xcb
0x402542: A1 00 C0 40 00                                  mov eax, dword ptr [0x40c000]
0x402547: 83 C0 03                                        add eax, 0x3
0x40254A: 83 F8 06                                        cmp eax, 0x6
0x40254D: 0F 8F B4 00 00 00                               jnle 0xba
0x402553: 8B 15 30 C0 40 00                               mov edx, dword ptr [0x40c030]
0x402559: A1 28 C0 40 00                                  mov eax, dword ptr [0x40c028]
0x40255E: 39 C2                                           cmp edx, eax
0x402560: 0F 85 A1 00 00 00                               jnz 0xa7
0x402566: 8B 15 30 C0 40 00                               mov edx, dword ptr [0x40c030]
0x40256C: A1 2C C0 40 00                                  mov eax, dword ptr [0x40c02c]
0x402571: 39 C2                                           cmp edx, eax
0x402573: 0F 85 8E 00 00 00                               jnz 0x94
0x402579: A1 34 C0 40 00                                  mov eax, dword ptr [0x40c034]
0x40257E: 89 85 A8 FE FF FF                               mov dword ptr [ebp-0x158], eax
0x402584: A1 30 C0 40 00                                  mov eax, dword ptr [0x40c030]
0x402589: 89 85 A4 FE FF FF                               mov dword ptr [ebp-0x15c], eax
0x40258F: 8B 85 A4 FE FF FF                               mov eax, dword ptr [ebp-0x15c]
0x402595: 3B 85 A8 FE FF FF                               cmp eax, dword ptr [ebp-0x158]
0x40259B: 7E 6A                                           jle 0x6c
0x40259D: A1 04 80 40 00                                  mov eax, dword ptr [0x408004]
0x4025A2: 83 E8 04                                        sub eax, 0x4
0x4025A5: A3 04 80 40 00                                  mov dword ptr [0x408004], eax
0x4025AA: 8B 95 A8 FE FF FF                               mov edx, dword ptr [ebp-0x158]
0x4025B0: 8B 85 A4 FE FF FF                               mov eax, dword ptr [ebp-0x15c]
0x4025B6: 01 D0                                           add eax, edx
0x4025B8: 89 85 A0 FE FF FF                               mov dword ptr [ebp-0x160], eax
0x4025BE: A1 00 C0 40 00                                  mov eax, dword ptr [0x40c000]
0x4025C3: 8B 95 A8 FE FF FF                               mov edx, dword ptr [ebp-0x158]
0x4025C9: 89 14 85 04 C0 40 00                            mov dword ptr [eax*4+0x40c004], edx
0x4025D0: A1 00 C0 40 00                                  mov eax, dword ptr [0x40c000]
0x4025D5: 8D 50 01                                        lea edx, ptr [eax+0x1]
0x4025D8: 8B 85 A4 FE FF FF                               mov eax, dword ptr [ebp-0x15c]
0x4025DE: 89 04 95 04 C0 40 00                            mov dword ptr [edx*4+0x40c004], eax
0x4025E5: A1 00 C0 40 00                                  mov eax, dword ptr [0x40c000]
0x4025EA: 8D 50 02                                        lea edx, ptr [eax+0x2]
0x4025ED: 8B 85 A0 FE FF FF                               mov eax, dword ptr [ebp-0x160]
0x4025F3: 89 04 95 04 C0 40 00                            mov dword ptr [edx*4+0x40c004], eax
0x4025FA: A1 00 C0 40 00                                  mov eax, dword ptr [0x40c000]
0x4025FF: 83 C0 03                                        add eax, 0x3
0x402602: A3 00 C0 40 00                                  mov dword ptr [0x40c000], eax
0x402607: A1 04 80 40 00                                  mov eax, dword ptr [0x408004]
0x40260C: 83 F8 03                                        cmp eax, 0x3
0x40260F: 0F 8E C5 00 00 00                               jle 0xcb
0x402615: A1 00 C0 40 00                                  mov eax, dword ptr [0x40c000]
0x40261A: 83 C0 03                                        add eax, 0x3
0x40261D: 83 F8 06                                        cmp eax, 0x6
0x402620: 0F 8F B4 00 00 00                               jnle 0xba
0x402626: 8B 15 30 C0 40 00                               mov edx, dword ptr [0x40c030]
0x40262C: A1 2C C0 40 00                                  mov eax, dword ptr [0x40c02c]
0x402631: 39 C2                                           cmp edx, eax
0x402633: 0F 85 A1 00 00 00                               jnz 0xa7
0x402639: 8B 15 30 C0 40 00                               mov edx, dword ptr [0x40c030]
0x40263F: A1 28 C0 40 00                                  mov eax, dword ptr [0x40c028]
0x402644: 39 C2                                           cmp edx, eax
0x402646: 0F 85 8E 00 00 00                               jnz 0x94
0x40264C: A1 34 C0 40 00                                  mov eax, dword ptr [0x40c034]
0x402651: 89 85 9C FE FF FF                               mov dword ptr [ebp-0x164], eax
0x402657: A1 30 C0 40 00                                  mov eax, dword ptr [0x40c030]
0x40265C: 89 85 98 FE FF FF                               mov dword ptr [ebp-0x168], eax
0x402662: 8B 85 98 FE FF FF                               mov eax, dword ptr [ebp-0x168]
0x402668: 3B 85 9C FE FF FF                               cmp eax, dword ptr [ebp-0x164]
0x40266E: 7E 6A                                           jle 0x6c
0x402670: A1 04 80 40 00                                  mov eax, dword ptr [0x408004]
0x402675: 83 E8 04                                        sub eax, 0x4
0x402678: A3 04 80 40 00                                  mov dword ptr [0x408004], eax
0x40267D: 8B 95 9C FE FF FF                               mov edx, dword ptr [ebp-0x164]
0x402683: 8B 85 98 FE FF FF                               mov eax, dword ptr [ebp-0x168]
0x402689: 01 D0                                           add eax, edx
0x40268B: 89 85 94 FE FF FF                               mov dword ptr [ebp-0x16c], eax
0x402691: A1 00 C0 40 00                                  mov eax, dword ptr [0x40c000]
0x402696: 8B 95 9C FE FF FF                               mov edx, dword ptr [ebp-0x164]
0x40269C: 89 14 85 04 C0 40 00                            mov dword ptr [eax*4+0x40c004], edx
0x4026A3: A1 00 C0 40 00                                  mov eax, dword ptr [0x40c000]
0x4026A8: 8D 50 01                                        lea edx, ptr [eax+0x1]
0x4026AB: 8B 85 98 FE FF FF                               mov eax, dword ptr [ebp-0x168]
0x4026B1: 89 04 95 04 C0 40 00                            mov dword ptr [edx*4+0x40c004], eax
0x4026B8: A1 00 C0 40 00                                  mov eax, dword ptr [0x40c000]
0x4026BD: 8D 50 02                                        lea edx, ptr [eax+0x2]
0x4026C0: 8B 85 94 FE FF FF                               mov eax, dword ptr [ebp-0x16c]
0x4026C6: 89 04 95 04 C0 40 00                            mov dword ptr [edx*4+0x40c004], eax
0x4026CD: A1 00 C0 40 00                                  mov eax, dword ptr [0x40c000]
0x4026D2: 83 C0 03                                        add eax, 0x3
0x4026D5: A3 00 C0 40 00                                  mov dword ptr [0x40c000], eax
0x4026DA: A1 04 80 40 00                                  mov eax, dword ptr [0x408004]
0x4026DF: 83 F8 04                                        cmp eax, 0x4
0x4026E2: 0F 8E CF 00 00 00                               jle 0xd5
0x4026E8: A1 00 C0 40 00                                  mov eax, dword ptr [0x40c000]
0x4026ED: 83 C0 03                                        add eax, 0x3
0x4026F0: 83 F8 06                                        cmp eax, 0x6
0x4026F3: 0F 8F BE 00 00 00                               jnle 0xc4
0x4026F9: 8B 15 2C C0 40 00                               mov edx, dword ptr [0x40c02c]
0x4026FF: A1 30 C0 40 00                                  mov eax, dword ptr [0x40c030]
0x402704: 39 C2                                           cmp edx, eax
0x402706: 0F 85 AB 00 00 00                               jnz 0xb1
0x40270C: 8B 15 2C C0 40 00                               mov edx, dword ptr [0x40c02c]
0x402712: A1 38 C0 40 00                                  mov eax, dword ptr [0x40c038]
0x402717: 39 C2                                           cmp edx, eax
0x402719: 0F 85 98 00 00 00                               jnz 0x9e
0x40271F: A1 28 C0 40 00                                  mov eax, dword ptr [0x40c028]
0x402724: 89 85 90 FE FF FF                               mov dword ptr [ebp-0x170], eax
0x40272A: A1 2C C0 40 00                                  mov eax, dword ptr [0x40c02c]
0x40272F: 89 85 8C FE FF FF                               mov dword ptr [ebp-0x174], eax
0x402735: 8B 85 8C FE FF FF                               mov eax, dword ptr [ebp-0x174]
0x40273B: 3B 85 90 FE FF FF                               cmp eax, dword ptr [ebp-0x170]
0x402741: 7E 74                                           jle 0x76
0x402743: A1 34 C0 40 00                                  mov eax, dword ptr [0x40c034]
0x402748: A3 28 C0 40 00                                  mov dword ptr [0x40c028], eax
0x40274D: A1 04 80 40 00                                  mov eax, dword ptr [0x408004]
0x402752: 83 E8 04                                        sub eax, 0x4
0x402755: A3 04 80 40 00                                  mov dword ptr [0x408004], eax
0x40275A: 8B 95 90 FE FF FF                               mov edx, dword ptr [ebp-0x170]
0x402760: 8B 85 8C FE FF FF                               mov eax, dword ptr [ebp-0x174]
0x402766: 01 D0                                           add eax, edx
0x402768: 89 85 88 FE FF FF                               mov dword ptr [ebp-0x178], eax
0x40276E: A1 00 C0 40 00                                  mov eax, dword ptr [0x40c000]
0x402773: 8B 95 90 FE FF FF                               mov edx, dword ptr [ebp-0x170]
0x402779: 89 14 85 04 C0 40 00                            mov dword ptr [eax*4+0x40c004], edx
0x402780: A1 00 C0 40 00                                  mov eax, dword ptr [0x40c000]
0x402785: 8D 50 01                                        lea edx, ptr [eax+0x1]
0x402788: 8B 85 8C FE FF FF                               mov eax, dword ptr [ebp-0x174]
0x40278E: 89 04 95 04 C0 40 00                            mov dword ptr [edx*4+0x40c004], eax
0x402795: A1 00 C0 40 00                                  mov eax, dword ptr [0x40c000]
0x40279A: 8D 50 02                                        lea edx, ptr [eax+0x2]
0x40279D: 8B 85 88 FE FF FF                               mov eax, dword ptr [ebp-0x178]
0x4027A3: 89 04 95 04 C0 40 00                            mov dword ptr [edx*4+0x40c004], eax
0x4027AA: A1 00 C0 40 00                                  mov eax, dword ptr [0x40c000]
0x4027AF: 83 C0 03                                        add eax, 0x3
0x4027B2: A3 00 C0 40 00                                  mov dword ptr [0x40c000], eax
0x4027B7: A1 04 80 40 00                                  mov eax, dword ptr [0x408004]
0x4027BC: 83 F8 04                                        cmp eax, 0x4
0x4027BF: 0F 8E CF 00 00 00                               jle 0xd5
0x4027C5: A1 00 C0 40 00                                  mov eax, dword ptr [0x40c000]
0x4027CA: 83 C0 03                                        add eax, 0x3
0x4027CD: 83 F8 06                                        cmp eax, 0x6
0x4027D0: 0F 8F BE 00 00 00                               jnle 0xc4
0x4027D6: 8B 15 2C C0 40 00                               mov edx, dword ptr [0x40c02c]
0x4027DC: A1 34 C0 40 00                                  mov eax, dword ptr [0x40c034]
0x4027E1: 39 C2                                           cmp edx, eax
0x4027E3: 0F 85 AB 00 00 00                               jnz 0xb1
0x4027E9: 8B 15 2C C0 40 00                               mov edx, dword ptr [0x40c02c]
0x4027EF: A1 38 C0 40 00                                  mov eax, dword ptr [0x40c038]
0x4027F4: 39 C2                                           cmp edx, eax
0x4027F6: 0F 85 98 00 00 00                               jnz 0x9e
0x4027FC: A1 28 C0 40 00                                  mov eax, dword ptr [0x40c028]
0x402801: 89 85 84 FE FF FF                               mov dword ptr [ebp-0x17c], eax
0x402807: A1 2C C0 40 00                                  mov eax, dword ptr [0x40c02c]
0x40280C: 89 85 80 FE FF FF                               mov dword ptr [ebp-0x180], eax
0x402812: 8B 85 80 FE FF FF                               mov eax, dword ptr [ebp-0x180]
0x402818: 3B 85 84 FE FF FF                               cmp eax, dword ptr [ebp-0x17c]
0x40281E: 7E 74                                           jle 0x76
0x402820: A1 30 C0 40 00                                  mov eax, dword ptr [0x40c030]
0x402825: A3 28 C0 40 00                                  mov dword ptr [0x40c028], eax
0x40282A: A1 04 80 40 00                                  mov eax, dword ptr [0x408004]
0x40282F: 83 E8 04                                        sub eax, 0x4
0x402832: A3 04 80 40 00                                  mov dword ptr [0x408004], eax
0x402837: 8B 95 84 FE FF FF                               mov edx, dword ptr [ebp-0x17c]
0x40283D: 8B 85 80 FE FF FF                               mov eax, dword ptr [ebp-0x180]
0x402843: 01 D0                                           add eax, edx
0x402845: 89 85 7C FE FF FF                               mov dword ptr [ebp-0x184], eax
0x40284B: A1 00 C0 40 00                                  mov eax, dword ptr [0x40c000]
0x402850: 8B 95 84 FE FF FF                               mov edx, dword ptr [ebp-0x17c]
0x402856: 89 14 85 04 C0 40 00                            mov dword ptr [eax*4+0x40c004], edx
0x40285D: A1 00 C0 40 00                                  mov eax, dword ptr [0x40c000]
0x402862: 8D 50 01                                        lea edx, ptr [eax+0x1]
0x402865: 8B 85 80 FE FF FF                               mov eax, dword ptr [ebp-0x180]
0x40286B: 89 04 95 04 C0 40 00                            mov dword ptr [edx*4+0x40c004], eax
0x402872: A1 00 C0 40 00                                  mov eax, dword ptr [0x40c000]
0x402877: 8D 50 02                                        lea edx, ptr [eax+0x2]
0x40287A: 8B 85 7C FE FF FF                               mov eax, dword ptr [ebp-0x184]
0x402880: 89 04 95 04 C0 40 00                            mov dword ptr [edx*4+0x40c004], eax
0x402887: A1 00 C0 40 00                                  mov eax, dword ptr [0x40c000]
0x40288C: 83 C0 03                                        add eax, 0x3
0x40288F: A3 00 C0 40 00                                  mov dword ptr [0x40c000], eax
0x402894: A1 04 80 40 00                                  mov eax, dword ptr [0x408004]
0x402899: 83 F8 04                                        cmp eax, 0x4
0x40289C: 0F 8E CF 00 00 00                               jle 0xd5
0x4028A2: A1 00 C0 40 00                                  mov eax, dword ptr [0x40c000]
0x4028A7: 83 C0 03                                        add eax, 0x3
0x4028AA: 83 F8 06                                        cmp eax, 0x6
0x4028AD: 0F 8F BE 00 00 00                               jnle 0xc4
0x4028B3: 8B 15 2C C0 40 00                               mov edx, dword ptr [0x40c02c]
0x4028B9: A1 38 C0 40 00                                  mov eax, dword ptr [0x40c038]
0x4028BE: 39 C2                                           cmp edx, eax
0x4028C0: 0F 85 AB 00 00 00                               jnz 0xb1
0x4028C6: 8B 15 2C C0 40 00                               mov edx, dword ptr [0x40c02c]
0x4028CC: A1 30 C0 40 00                                  mov eax, dword ptr [0x40c030]
0x4028D1: 39 C2                                           cmp edx, eax
0x4028D3: 0F 85 98 00 00 00                               jnz 0x9e
0x4028D9: A1 28 C0 40 00                                  mov eax, dword ptr [0x40c028]
0x4028DE: 89 85 78 FE FF FF                               mov dword ptr [ebp-0x188], eax
0x4028E4: A1 2C C0 40 00                                  mov eax, dword ptr [0x40c02c]
0x4028E9: 89 85 74 FE FF FF                               mov dword ptr [ebp-0x18c], eax
0x4028EF: 8B 85 74 FE FF FF                               mov eax, dword ptr [ebp-0x18c]
0x4028F5: 3B 85 78 FE FF FF                               cmp eax, dword ptr [ebp-0x188]
0x4028FB: 7E 74                                           jle 0x76
0x4028FD: A1 34 C0 40 00                                  mov eax, dword ptr [0x40c034]
0x402902: A3 28 C0 40 00                                  mov dword ptr [0x40c028], eax
0x402907: A1 04 80 40 00                                  mov eax, dword ptr [0x408004]
0x40290C: 83 E8 04                                        sub eax, 0x4
0x40290F: A3 04 80 40 00                                  mov dword ptr [0x408004], eax
0x402914: 8B 95 78 FE FF FF                               mov edx, dword ptr [ebp-0x188]
0x40291A: 8B 85 74 FE FF FF                               mov eax, dword ptr [ebp-0x18c]
0x402920: 01 D0                                           add eax, edx
0x402922: 89 85 70 FE FF FF                               mov dword ptr [ebp-0x190], eax
0x402928: A1 00 C0 40 00                                  mov eax, dword ptr [0x40c000]
0x40292D: 8B 95 78 FE FF FF                               mov edx, dword ptr [ebp-0x188]
0x402933: 89 14 85 04 C0 40 00                            mov dword ptr [eax*4+0x40c004], edx
0x40293A: A1 00 C0 40 00                                  mov eax, dword ptr [0x40c000]
0x40293F: 8D 50 01                                        lea edx, ptr [eax+0x1]
0x402942: 8B 85 74 FE FF FF                               mov eax, dword ptr [ebp-0x18c]
0x402948: 89 04 95 04 C0 40 00                            mov dword ptr [edx*4+0x40c004], eax
0x40294F: A1 00 C0 40 00                                  mov eax, dword ptr [0x40c000]
0x402954: 8D 50 02                                        lea edx, ptr [eax+0x2]
0x402957: 8B 85 70 FE FF FF                               mov eax, dword ptr [ebp-0x190]
0x40295D: 89 04 95 04 C0 40 00                            mov dword ptr [edx*4+0x40c004], eax
0x402964: A1 00 C0 40 00                                  mov eax, dword ptr [0x40c000]
0x402969: 83 C0 03                                        add eax, 0x3
0x40296C: A3 00 C0 40 00                                  mov dword ptr [0x40c000], eax
0x402971: A1 04 80 40 00                                  mov eax, dword ptr [0x408004]
0x402976: 83 F8 04                                        cmp eax, 0x4
0x402979: 0F 8E CF 00 00 00                               jle 0xd5
0x40297F: A1 00 C0 40 00                                  mov eax, dword ptr [0x40c000]
0x402984: 83 C0 03                                        add eax, 0x3
0x402987: 83 F8 06                                        cmp eax, 0x6
0x40298A: 0F 8F BE 00 00 00                               jnle 0xc4
0x402990: 8B 15 2C C0 40 00                               mov edx, dword ptr [0x40c02c]
0x402996: A1 38 C0 40 00                                  mov eax, dword ptr [0x40c038]
0x40299B: 39 C2                                           cmp edx, eax
0x40299D: 0F 85 AB 00 00 00                               jnz 0xb1
0x4029A3: 8B 15 2C C0 40 00                               mov edx, dword ptr [0x40c02c]
0x4029A9: A1 34 C0 40 00                                  mov eax, dword ptr [0x40c034]
0x4029AE: 39 C2                                           cmp edx, eax
0x4029B0: 0F 85 98 00 00 00                               jnz 0x9e
0x4029B6: A1 28 C0 40 00                                  mov eax, dword ptr [0x40c028]
0x4029BB: 89 85 6C FE FF FF                               mov dword ptr [ebp-0x194], eax
0x4029C1: A1 2C C0 40 00                                  mov eax, dword ptr [0x40c02c]
0x4029C6: 89 85 68 FE FF FF                               mov dword ptr [ebp-0x198], eax
0x4029CC: 8B 85 68 FE FF FF                               mov eax, dword ptr [ebp-0x198]
0x4029D2: 3B 85 6C FE FF FF                               cmp eax, dword ptr [ebp-0x194]
0x4029D8: 7E 74                                           jle 0x76
0x4029DA: A1 30 C0 40 00                                  mov eax, dword ptr [0x40c030]
0x4029DF: A3 28 C0 40 00                                  mov dword ptr [0x40c028], eax
0x4029E4: A1 04 80 40 00                                  mov eax, dword ptr [0x408004]
0x4029E9: 83 E8 04                                        sub eax, 0x4
0x4029EC: A3 04 80 40 00                                  mov dword ptr [0x408004], eax
0x4029F1: 8B 95 6C FE FF FF                               mov edx, dword ptr [ebp-0x194]
0x4029F7: 8B 85 68 FE FF FF                               mov eax, dword ptr [ebp-0x198]
0x4029FD: 01 D0                                           add eax, edx
0x4029FF: 89 85 64 FE FF FF                               mov dword ptr [ebp-0x19c], eax
0x402A05: A1 00 C0 40 00                                  mov eax, dword ptr [0x40c000]
0x402A0A: 8B 95 6C FE FF FF                               mov edx, dword ptr [ebp-0x194]
0x402A10: 89 14 85 04 C0 40 00                            mov dword ptr [eax*4+0x40c004], edx
0x402A17: A1 00 C0 40 00                                  mov eax, dword ptr [0x40c000]
0x402A1C: 8D 50 01                                        lea edx, ptr [eax+0x1]
0x402A1F: 8B 85 68 FE FF FF                               mov eax, dword ptr [ebp-0x198]
0x402A25: 89 04 95 04 C0 40 00                            mov dword ptr [edx*4+0x40c004], eax
0x402A2C: A1 00 C0 40 00                                  mov eax, dword ptr [0x40c000]
0x402A31: 8D 50 02                                        lea edx, ptr [eax+0x2]
0x402A34: 8B 85 64 FE FF FF                               mov eax, dword ptr [ebp-0x19c]
0x402A3A: 89 04 95 04 C0 40 00                            mov dword ptr [edx*4+0x40c004], eax
0x402A41: A1 00 C0 40 00                                  mov eax, dword ptr [0x40c000]
0x402A46: 83 C0 03                                        add eax, 0x3
0x402A49: A3 00 C0 40 00                                  mov dword ptr [0x40c000], eax
0x402A4E: A1 04 80 40 00                                  mov eax, dword ptr [0x408004]
0x402A53: 83 F8 04                                        cmp eax, 0x4
0x402A56: 0F 8E CF 00 00 00                               jle 0xd5
0x402A5C: A1 00 C0 40 00                                  mov eax, dword ptr [0x40c000]
0x402A61: 83 C0 03                                        add eax, 0x3
0x402A64: 83 F8 06                                        cmp eax, 0x6
0x402A67: 0F 8F BE 00 00 00                               jnle 0xc4
0x402A6D: 8B 15 30 C0 40 00                               mov edx, dword ptr [0x40c030]
0x402A73: A1 2C C0 40 00                                  mov eax, dword ptr [0x40c02c]
0x402A78: 39 C2                                           cmp edx, eax
0x402A7A: 0F 85 AB 00 00 00                               jnz 0xb1
0x402A80: 8B 15 30 C0 40 00                               mov edx, dword ptr [0x40c030]
0x402A86: A1 38 C0 40 00                                  mov eax, dword ptr [0x40c038]
0x402A8B: 39 C2                                           cmp edx, eax
0x402A8D: 0F 85 98 00 00 00                               jnz 0x9e
0x402A93: A1 28 C0 40 00                                  mov eax, dword ptr [0x40c028]
0x402A98: 89 85 60 FE FF FF                               mov dword ptr [ebp-0x1a0], eax
0x402A9E: A1 30 C0 40 00                                  mov eax, dword ptr [0x40c030]
0x402AA3: 89 85 5C FE FF FF                               mov dword ptr [ebp-0x1a4], eax
0x402AA9: 8B 85 5C FE FF FF                               mov eax, dword ptr [ebp-0x1a4]
0x402AAF: 3B 85 60 FE FF FF                               cmp eax, dword ptr [ebp-0x1a0]
0x402AB5: 7E 74                                           jle 0x76
0x402AB7: A1 34 C0 40 00                                  mov eax, dword ptr [0x40c034]
0x402ABC: A3 28 C0 40 00                                  mov dword ptr [0x40c028], eax
0x402AC1: A1 04 80 40 00                                  mov eax, dword ptr [0x408004]
0x402AC6: 83 E8 04                                        sub eax, 0x4
0x402AC9: A3 04 80 40 00                                  mov dword ptr [0x408004], eax
0x402ACE: 8B 95 60 FE FF FF                               mov edx, dword ptr [ebp-0x1a0]
0x402AD4: 8B 85 5C FE FF FF                               mov eax, dword ptr [ebp-0x1a4]
0x402ADA: 01 D0                                           add eax, edx
0x402ADC: 89 85 58 FE FF FF                               mov dword ptr [ebp-0x1a8], eax
0x402AE2: A1 00 C0 40 00                                  mov eax, dword ptr [0x40c000]
0x402AE7: 8B 95 60 FE FF FF                               mov edx, dword ptr [ebp-0x1a0]
0x402AED: 89 14 85 04 C0 40 00                            mov dword ptr [eax*4+0x40c004], edx
0x402AF4: A1 00 C0 40 00                                  mov eax, dword ptr [0x40c000]
0x402AF9: 8D 50 01                                        lea edx, ptr [eax+0x1]
0x402AFC: 8B 85 5C FE FF FF                               mov eax, dword ptr [ebp-0x1a4]
0x402B02: 89 04 95 04 C0 40 00                            mov dword ptr [edx*4+0x40c004], eax
0x402B09: A1 00 C0 40 00                                  mov eax, dword ptr [0x40c000]
0x402B0E: 8D 50 02                                        lea edx, ptr [eax+0x2]
0x402B11: 8B 85 58 FE FF FF                               mov eax, dword ptr [ebp-0x1a8]
0x402B17: 89 04 95 04 C0 40 00                            mov dword ptr [edx*4+0x40c004], eax
0x402B1E: A1 00 C0 40 00                                  mov eax, dword ptr [0x40c000]
0x402B23: 83 C0 03                                        add eax, 0x3
0x402B26: A3 00 C0 40 00                                  mov dword ptr [0x40c000], eax
0x402B2B: A1 04 80 40 00                                  mov eax, dword ptr [0x408004]
0x402B30: 83 F8 04                                        cmp eax, 0x4
0x402B33: 0F 8E CF 00 00 00                               jle 0xd5
0x402B39: A1 00 C0 40 00                                  mov eax, dword ptr [0x40c000]
0x402B3E: 83 C0 03                                        add eax, 0x3
0x402B41: 83 F8 06                                        cmp eax, 0x6
0x402B44: 0F 8F BE 00 00 00                               jnle 0xc4
0x402B4A: 8B 15 30 C0 40 00                               mov edx, dword ptr [0x40c030]
0x402B50: A1 34 C0 40 00                                  mov eax, dword ptr [0x40c034]
0x402B55: 39 C2                                           cmp edx, eax
0x402B57: 0F 85 AB 00 00 00                               jnz 0xb1
0x402B5D: 8B 15 30 C0 40 00                               mov edx, dword ptr [0x40c030]
0x402B63: A1 38 C0 40 00                                  mov eax, dword ptr [0x40c038]
0x402B68: 39 C2                                           cmp edx, eax
0x402B6A: 0F 85 98 00 00 00                               jnz 0x9e
0x402B70: A1 28 C0 40 00                                  mov eax, dword ptr [0x40c028]
0x402B75: 89 85 54 FE FF FF                               mov dword ptr [ebp-0x1ac], eax
0x402B7B: A1 30 C0 40 00                                  mov eax, dword ptr [0x40c030]
0x402B80: 89 85 50 FE FF FF                               mov dword ptr [ebp-0x1b0], eax
0x402B86: 8B 85 50 FE FF FF                               mov eax, dword ptr [ebp-0x1b0]
0x402B8C: 3B 85 54 FE FF FF                               cmp eax, dword ptr [ebp-0x1ac]
0x402B92: 7E 74                                           jle 0x76
0x402B94: A1 2C C0 40 00                                  mov eax, dword ptr [0x40c02c]
0x402B99: A3 28 C0 40 00                                  mov dword ptr [0x40c028], eax
0x402B9E: A1 04 80 40 00                                  mov eax, dword ptr [0x408004]
0x402BA3: 83 E8 04                                        sub eax, 0x4
0x402BA6: A3 04 80 40 00                                  mov dword ptr [0x408004], eax
0x402BAB: 8B 95 54 FE FF FF                               mov edx, dword ptr [ebp-0x1ac]
0x402BB1: 8B 85 50 FE FF FF                               mov eax, dword ptr [ebp-0x1b0]
0x402BB7: 01 D0                                           add eax, edx
0x402BB9: 89 85 4C FE FF FF                               mov dword ptr [ebp-0x1b4], eax
0x402BBF: A1 00 C0 40 00                                  mov eax, dword ptr [0x40c000]
0x402BC4: 8B 95 54 FE FF FF                               mov edx, dword ptr [ebp-0x1ac]
0x402BCA: 89 14 85 04 C0 40 00                            mov dword ptr [eax*4+0x40c004], edx
0x402BD1: A1 00 C0 40 00                                  mov eax, dword ptr [0x40c000]
0x402BD6: 8D 50 01                                        lea edx, ptr [eax+0x1]
0x402BD9: 8B 85 50 FE FF FF                               mov eax, dword ptr [ebp-0x1b0]
0x402BDF: 89 04 95 04 C0 40 00                            mov dword ptr [edx*4+0x40c004], eax
0x402BE6: A1 00 C0 40 00                                  mov eax, dword ptr [0x40c000]
0x402BEB: 8D 50 02                                        lea edx, ptr [eax+0x2]
0x402BEE: 8B 85 4C FE FF FF                               mov eax, dword ptr [ebp-0x1b4]
0x402BF4: 89 04 95 04 C0 40 00                            mov dword ptr [edx*4+0x40c004], eax
0x402BFB: A1 00 C0 40 00                                  mov eax, dword ptr [0x40c000]
0x402C00: 83 C0 03                                        add eax, 0x3
0x402C03: A3 00 C0 40 00                                  mov dword ptr [0x40c000], eax
0x402C08: A1 04 80 40 00                                  mov eax, dword ptr [0x408004]
0x402C0D: 83 F8 04                                        cmp eax, 0x4
0x402C10: 0F 8E CF 00 00 00                               jle 0xd5
0x402C16: A1 00 C0 40 00                                  mov eax, dword ptr [0x40c000]
0x402C1B: 83 C0 03                                        add eax, 0x3
0x402C1E: 83 F8 06                                        cmp eax, 0x6
0x402C21: 0F 8F BE 00 00 00                               jnle 0xc4
0x402C27: 8B 15 30 C0 40 00                               mov edx, dword ptr [0x40c030]
0x402C2D: A1 38 C0 40 00                                  mov eax, dword ptr [0x40c038]
0x402C32: 39 C2                                           cmp edx, eax
0x402C34: 0F 85 AB 00 00 00                               jnz 0xb1
0x402C3A: 8B 15 30 C0 40 00                               mov edx, dword ptr [0x40c030]
0x402C40: A1 2C C0 40 00                                  mov eax, dword ptr [0x40c02c]
0x402C45: 39 C2                                           cmp edx, eax
0x402C47: 0F 85 98 00 00 00                               jnz 0x9e
0x402C4D: A1 28 C0 40 00                                  mov eax, dword ptr [0x40c028]
0x402C52: 89 85 48 FE FF FF                               mov dword ptr [ebp-0x1b8], eax
0x402C58: A1 30 C0 40 00                                  mov eax, dword ptr [0x40c030]
0x402C5D: 89 85 44 FE FF FF                               mov dword ptr [ebp-0x1bc], eax
0x402C63: 8B 85 44 FE FF FF                               mov eax, dword ptr [ebp-0x1bc]
0x402C69: 3B 85 48 FE FF FF                               cmp eax, dword ptr [ebp-0x1b8]
0x402C6F: 7E 74                                           jle 0x76
0x402C71: A1 34 C0 40 00                                  mov eax, dword ptr [0x40c034]
0x402C76: A3 28 C0 40 00                                  mov dword ptr [0x40c028], eax
0x402C7B: A1 04 80 40 00                                  mov eax, dword ptr [0x408004]
0x402C80: 83 E8 04                                        sub eax, 0x4
0x402C83: A3 04 80 40 00                                  mov dword ptr [0x408004], eax
0x402C88: 8B 95 48 FE FF FF                               mov edx, dword ptr [ebp-0x1b8]
0x402C8E: 8B 85 44 FE FF FF                               mov eax, dword ptr [ebp-0x1bc]
0x402C94: 01 D0                                           add eax, edx
0x402C96: 89 85 40 FE FF FF                               mov dword ptr [ebp-0x1c0], eax
0x402C9C: A1 00 C0 40 00                                  mov eax, dword ptr [0x40c000]
0x402CA1: 8B 95 48 FE FF FF                               mov edx, dword ptr [ebp-0x1b8]
0x402CA7: 89 14 85 04 C0 40 00                            mov dword ptr [eax*4+0x40c004], edx
0x402CAE: A1 00 C0 40 00                                  mov eax, dword ptr [0x40c000]
0x402CB3: 8D 50 01                                        lea edx, ptr [eax+0x1]
0x402CB6: 8B 85 44 FE FF FF                               mov eax, dword ptr [ebp-0x1bc]
0x402CBC: 89 04 95 04 C0 40 00                            mov dword ptr [edx*4+0x40c004], eax
0x402CC3: A1 00 C0 40 00                                  mov eax, dword ptr [0x40c000]
0x402CC8: 8D 50 02                                        lea edx, ptr [eax+0x2]
0x402CCB: 8B 85 40 FE FF FF                               mov eax, dword ptr [ebp-0x1c0]
0x402CD1: 89 04 95 04 C0 40 00                            mov dword ptr [edx*4+0x40c004], eax
0x402CD8: A1 00 C0 40 00                                  mov eax, dword ptr [0x40c000]
0x402CDD: 83 C0 03                                        add eax, 0x3
0x402CE0: A3 00 C0 40 00                                  mov dword ptr [0x40c000], eax
0x402CE5: A1 04 80 40 00                                  mov eax, dword ptr [0x408004]
0x402CEA: 83 F8 04                                        cmp eax, 0x4
0x402CED: 0F 8E CF 00 00 00                               jle 0xd5
0x402CF3: A1 00 C0 40 00                                  mov eax, dword ptr [0x40c000]
0x402CF8: 83 C0 03                                        add eax, 0x3
0x402CFB: 83 F8 06                                        cmp eax, 0x6
0x402CFE: 0F 8F BE 00 00 00                               jnle 0xc4
0x402D04: 8B 15 30 C0 40 00                               mov edx, dword ptr [0x40c030]
0x402D0A: A1 38 C0 40 00                                  mov eax, dword ptr [0x40c038]
0x402D0F: 39 C2                                           cmp edx, eax
0x402D11: 0F 85 AB 00 00 00                               jnz 0xb1
0x402D17: 8B 15 30 C0 40 00                               mov edx, dword ptr [0x40c030]
0x402D1D: A1 34 C0 40 00                                  mov eax, dword ptr [0x40c034]
0x402D22: 39 C2                                           cmp edx, eax
0x402D24: 0F 85 98 00 00 00                               jnz 0x9e
0x402D2A: A1 28 C0 40 00                                  mov eax, dword ptr [0x40c028]
0x402D2F: 89 85 3C FE FF FF                               mov dword ptr [ebp-0x1c4], eax
0x402D35: A1 30 C0 40 00                                  mov eax, dword ptr [0x40c030]
0x402D3A: 89 85 38 FE FF FF                               mov dword ptr [ebp-0x1c8], eax
0x402D40: 8B 85 38 FE FF FF                               mov eax, dword ptr [ebp-0x1c8]
0x402D46: 3B 85 3C FE FF FF                               cmp eax, dword ptr [ebp-0x1c4]
0x402D4C: 7E 74                                           jle 0x76
0x402D4E: A1 2C C0 40 00                                  mov eax, dword ptr [0x40c02c]
0x402D53: A3 28 C0 40 00                                  mov dword ptr [0x40c028], eax
0x402D58: A1 04 80 40 00                                  mov eax, dword ptr [0x408004]
0x402D5D: 83 E8 04                                        sub eax, 0x4
0x402D60: A3 04 80 40 00                                  mov dword ptr [0x408004], eax
0x402D65: 8B 95 3C FE FF FF                               mov edx, dword ptr [ebp-0x1c4]
0x402D6B: 8B 85 38 FE FF FF                               mov eax, dword ptr [ebp-0x1c8]
0x402D71: 01 D0                                           add eax, edx
0x402D73: 89 85 34 FE FF FF                               mov dword ptr [ebp-0x1cc], eax
0x402D79: A1 00 C0 40 00                                  mov eax, dword ptr [0x40c000]
0x402D7E: 8B 95 3C FE FF FF                               mov edx, dword ptr [ebp-0x1c4]
0x402D84: 89 14 85 04 C0 40 00                            mov dword ptr [eax*4+0x40c004], edx
0x402D8B: A1 00 C0 40 00                                  mov eax, dword ptr [0x40c000]
0x402D90: 8D 50 01                                        lea edx, ptr [eax+0x1]
0x402D93: 8B 85 38 FE FF FF                               mov eax, dword ptr [ebp-0x1c8]
0x402D99: 89 04 95 04 C0 40 00                            mov dword ptr [edx*4+0x40c004], eax
0x402DA0: A1 00 C0 40 00                                  mov eax, dword ptr [0x40c000]
0x402DA5: 8D 50 02                                        lea edx, ptr [eax+0x2]
0x402DA8: 8B 85 34 FE FF FF                               mov eax, dword ptr [ebp-0x1cc]
0x402DAE: 89 04 95 04 C0 40 00                            mov dword ptr [edx*4+0x40c004], eax
0x402DB5: A1 00 C0 40 00                                  mov eax, dword ptr [0x40c000]
0x402DBA: 83 C0 03                                        add eax, 0x3
0x402DBD: A3 00 C0 40 00                                  mov dword ptr [0x40c000], eax
0x402DC2: A1 04 80 40 00                                  mov eax, dword ptr [0x408004]
0x402DC7: 83 F8 04                                        cmp eax, 0x4
0x402DCA: 0F 8E CF 00 00 00                               jle 0xd5
0x402DD0: A1 00 C0 40 00                                  mov eax, dword ptr [0x40c000]
0x402DD5: 83 C0 03                                        add eax, 0x3
0x402DD8: 83 F8 06                                        cmp eax, 0x6
0x402DDB: 0F 8F BE 00 00 00                               jnle 0xc4
0x402DE1: 8B 15 34 C0 40 00                               mov edx, dword ptr [0x40c034]
0x402DE7: A1 2C C0 40 00                                  mov eax, dword ptr [0x40c02c]
0x402DEC: 39 C2                                           cmp edx, eax
0x402DEE: 0F 85 AB 00 00 00                               jnz 0xb1
0x402DF4: 8B 15 34 C0 40 00                               mov edx, dword ptr [0x40c034]
0x402DFA: A1 38 C0 40 00                                  mov eax, dword ptr [0x40c038]
0x402DFF: 39 C2                                           cmp edx, eax
0x402E01: 0F 85 98 00 00 00                               jnz 0x9e
0x402E07: A1 28 C0 40 00                                  mov eax, dword ptr [0x40c028]
0x402E0C: 89 85 30 FE FF FF                               mov dword ptr [ebp-0x1d0], eax
0x402E12: A1 34 C0 40 00                                  mov eax, dword ptr [0x40c034]
0x402E17: 89 85 2C FE FF FF                               mov dword ptr [ebp-0x1d4], eax
0x402E1D: 8B 85 2C FE FF FF                               mov eax, dword ptr [ebp-0x1d4]
0x402E23: 3B 85 30 FE FF FF                               cmp eax, dword ptr [ebp-0x1d0]
0x402E29: 7E 74                                           jle 0x76
0x402E2B: A1 30 C0 40 00                                  mov eax, dword ptr [0x40c030]
0x402E30: A3 28 C0 40 00                                  mov dword ptr [0x40c028], eax
0x402E35: A1 04 80 40 00                                  mov eax, dword ptr [0x408004]
0x402E3A: 83 E8 04                                        sub eax, 0x4
0x402E3D: A3 04 80 40 00                                  mov dword ptr [0x408004], eax
0x402E42: 8B 95 30 FE FF FF                               mov edx, dword ptr [ebp-0x1d0]
0x402E48: 8B 85 2C FE FF FF                               mov eax, dword ptr [ebp-0x1d4]
0x402E4E: 01 D0                                           add eax, edx
0x402E50: 89 85 28 FE FF FF                               mov dword ptr [ebp-0x1d8], eax
0x402E56: A1 00 C0 40 00                                  mov eax, dword ptr [0x40c000]
0x402E5B: 8B 95 30 FE FF FF                               mov edx, dword ptr [ebp-0x1d0]
0x402E61: 89 14 85 04 C0 40 00                            mov dword ptr [eax*4+0x40c004], edx
0x402E68: A1 00 C0 40 00                                  mov eax, dword ptr [0x40c000]
0x402E6D: 8D 50 01                                        lea edx, ptr [eax+0x1]
0x402E70: 8B 85 2C FE FF FF                               mov eax, dword ptr [ebp-0x1d4]
0x402E76: 89 04 95 04 C0 40 00                            mov dword ptr [edx*4+0x40c004], eax
0x402E7D: A1 00 C0 40 00                                  mov eax, dword ptr [0x40c000]
0x402E82: 8D 50 02                                        lea edx, ptr [eax+0x2]
0x402E85: 8B 85 28 FE FF FF                               mov eax, dword ptr [ebp-0x1d8]
0x402E8B: 89 04 95 04 C0 40 00                            mov dword ptr [edx*4+0x40c004], eax
0x402E92: A1 00 C0 40 00                                  mov eax, dword ptr [0x40c000]
0x402E97: 83 C0 03                                        add eax, 0x3
0x402E9A: A3 00 C0 40 00                                  mov dword ptr [0x40c000], eax
0x402E9F: A1 04 80 40 00                                  mov eax, dword ptr [0x408004]
0x402EA4: 83 F8 04                                        cmp eax, 0x4
0x402EA7: 0F 8E CF 00 00 00                               jle 0xd5
0x402EAD: A1 00 C0 40 00                                  mov eax, dword ptr [0x40c000]
0x402EB2: 83 C0 03                                        add eax, 0x3
0x402EB5: 83 F8 06                                        cmp eax, 0x6
0x402EB8: 0F 8F BE 00 00 00                               jnle 0xc4
0x402EBE: 8B 15 34 C0 40 00                               mov edx, dword ptr [0x40c034]
0x402EC4: A1 30 C0 40 00                                  mov eax, dword ptr [0x40c030]
0x402EC9: 39 C2                                           cmp edx, eax
0x402ECB: 0F 85 AB 00 00 00                               jnz 0xb1
0x402ED1: 8B 15 34 C0 40 00                               mov edx, dword ptr [0x40c034]
0x402ED7: A1 38 C0 40 00                                  mov eax, dword ptr [0x40c038]
0x402EDC: 39 C2                                           cmp edx, eax
0x402EDE: 0F 85 98 00 00 00                               jnz 0x9e
0x402EE4: A1 28 C0 40 00                                  mov eax, dword ptr [0x40c028]
0x402EE9: 89 85 24 FE FF FF                               mov dword ptr [ebp-0x1dc], eax
0x402EEF: A1 34 C0 40 00                                  mov eax, dword ptr [0x40c034]
0x402EF4: 89 85 20 FE FF FF                               mov dword ptr [ebp-0x1e0], eax
0x402EFA: 8B 85 20 FE FF FF                               mov eax, dword ptr [ebp-0x1e0]
0x402F00: 3B 85 24 FE FF FF                               cmp eax, dword ptr [ebp-0x1dc]
0x402F06: 7E 74                                           jle 0x76
0x402F08: A1 2C C0 40 00                                  mov eax, dword ptr [0x40c02c]
0x402F0D: A3 28 C0 40 00                                  mov dword ptr [0x40c028], eax
0x402F12: A1 04 80 40 00                                  mov eax, dword ptr [0x408004]
0x402F17: 83 E8 04                                        sub eax, 0x4
0x402F1A: A3 04 80 40 00                                  mov dword ptr [0x408004], eax
0x402F1F: 8B 95 24 FE FF FF                               mov edx, dword ptr [ebp-0x1dc]
0x402F25: 8B 85 20 FE FF FF                               mov eax, dword ptr [ebp-0x1e0]
0x402F2B: 01 D0                                           add eax, edx
0x402F2D: 89 85 1C FE FF FF                               mov dword ptr [ebp-0x1e4], eax
0x402F33: A1 00 C0 40 00                                  mov eax, dword ptr [0x40c000]
0x402F38: 8B 95 24 FE FF FF                               mov edx, dword ptr [ebp-0x1dc]
0x402F3E: 89 14 85 04 C0 40 00                            mov dword ptr [eax*4+0x40c004], edx
0x402F45: A1 00 C0 40 00                                  mov eax, dword ptr [0x40c000]
0x402F4A: 8D 50 01                                        lea edx, ptr [eax+0x1]
0x402F4D: 8B 85 20 FE FF FF                               mov eax, dword ptr [ebp-0x1e0]
0x402F53: 89 04 95 04 C0 40 00                            mov dword ptr [edx*4+0x40c004], eax
0x402F5A: A1 00 C0 40 00                                  mov eax, dword ptr [0x40c000]
0x402F5F: 8D 50 02                                        lea edx, ptr [eax+0x2]
0x402F62: 8B 85 1C FE FF FF                               mov eax, dword ptr [ebp-0x1e4]
0x402F68: 89 04 95 04 C0 40 00                            mov dword ptr [edx*4+0x40c004], eax
0x402F6F: A1 00 C0 40 00                                  mov eax, dword ptr [0x40c000]
0x402F74: 83 C0 03                                        add eax, 0x3
0x402F77: A3 00 C0 40 00                                  mov dword ptr [0x40c000], eax
0x402F7C: A1 04 80 40 00                                  mov eax, dword ptr [0x408004]
0x402F81: 83 F8 04                                        cmp eax, 0x4
0x402F84: 0F 8E CF 00 00 00                               jle 0xd5
0x402F8A: A1 00 C0 40 00                                  mov eax, dword ptr [0x40c000]
0x402F8F: 83 C0 03                                        add eax, 0x3
0x402F92: 83 F8 06                                        cmp eax, 0x6
0x402F95: 0F 8F BE 00 00 00                               jnle 0xc4
0x402F9B: 8B 15 34 C0 40 00                               mov edx, dword ptr [0x40c034]
0x402FA1: A1 38 C0 40 00                                  mov eax, dword ptr [0x40c038]
0x402FA6: 39 C2                                           cmp edx, eax
0x402FA8: 0F 85 AB 00 00 00                               jnz 0xb1
0x402FAE: 8B 15 34 C0 40 00                               mov edx, dword ptr [0x40c034]
0x402FB4: A1 2C C0 40 00                                  mov eax, dword ptr [0x40c02c]
0x402FB9: 39 C2                                           cmp edx, eax
0x402FBB: 0F 85 98 00 00 00                               jnz 0x9e
0x402FC1: A1 28 C0 40 00                                  mov eax, dword ptr [0x40c028]
0x402FC6: 89 85 18 FE FF FF                               mov dword ptr [ebp-0x1e8], eax
0x402FCC: A1 34 C0 40 00                                  mov eax, dword ptr [0x40c034]
0x402FD1: 89 85 14 FE FF FF                               mov dword ptr [ebp-0x1ec], eax
0x402FD7: 8B 85 14 FE FF FF                               mov eax, dword ptr [ebp-0x1ec]
0x402FDD: 3B 85 18 FE FF FF                               cmp eax, dword ptr [ebp-0x1e8]
0x402FE3: 7E 74                                           jle 0x76
0x402FE5: A1 30 C0 40 00                                  mov eax, dword ptr [0x40c030]
0x402FEA: A3 28 C0 40 00                                  mov dword ptr [0x40c028], eax
0x402FEF: A1 04 80 40 00                                  mov eax, dword ptr [0x408004]
0x402FF4: 83 E8 04                                        sub eax, 0x4
0x402FF7: A3 04 80 40 00                                  mov dword ptr [0x408004], eax
0x402FFC: 8B 95 18 FE FF FF                               mov edx, dword ptr [ebp-0x1e8]
0x403002: 8B 85 14 FE FF FF                               mov eax, dword ptr [ebp-0x1ec]
0x403008: 01 D0                                           add eax, edx
0x40300A: 89 85 10 FE FF FF                               mov dword ptr [ebp-0x1f0], eax
0x403010: A1 00 C0 40 00                                  mov eax, dword ptr [0x40c000]
0x403015: 8B 95 18 FE FF FF                               mov edx, dword ptr [ebp-0x1e8]
0x40301B: 89 14 85 04 C0 40 00                            mov dword ptr [eax*4+0x40c004], edx
0x403022: A1 00 C0 40 00                                  mov eax, dword ptr [0x40c000]
0x403027: 8D 50 01                                        lea edx, ptr [eax+0x1]
0x40302A: 8B 85 14 FE FF FF                               mov eax, dword ptr [ebp-0x1ec]
0x403030: 89 04 95 04 C0 40 00                            mov dword ptr [edx*4+0x40c004], eax
0x403037: A1 00 C0 40 00                                  mov eax, dword ptr [0x40c000]
0x40303C: 8D 50 02                                        lea edx, ptr [eax+0x2]
0x40303F: 8B 85 10 FE FF FF                               mov eax, dword ptr [ebp-0x1f0]
0x403045: 89 04 95 04 C0 40 00                            mov dword ptr [edx*4+0x40c004], eax
0x40304C: A1 00 C0 40 00                                  mov eax, dword ptr [0x40c000]
0x403051: 83 C0 03                                        add eax, 0x3
0x403054: A3 00 C0 40 00                                  mov dword ptr [0x40c000], eax
0x403059: A1 04 80 40 00                                  mov eax, dword ptr [0x408004]
0x40305E: 83 F8 04                                        cmp eax, 0x4
0x403061: 0F 8E CF 00 00 00                               jle 0xd5
0x403067: A1 00 C0 40 00                                  mov eax, dword ptr [0x40c000]
0x40306C: 83 C0 03                                        add eax, 0x3
0x40306F: 83 F8 06                                        cmp eax, 0x6
0x403072: 0F 8F BE 00 00 00                               jnle 0xc4
0x403078: 8B 15 34 C0 40 00                               mov edx, dword ptr [0x40c034]
0x40307E: A1 38 C0 40 00                                  mov eax, dword ptr [0x40c038]
0x403083: 39 C2                                           cmp edx, eax
0x403085: 0F 85 AB 00 00 00                               jnz 0xb1
0x40308B: 8B 15 34 C0 40 00                               mov edx, dword ptr [0x40c034]
0x403091: A1 30 C0 40 00                                  mov eax, dword ptr [0x40c030]
0x403096: 39 C2                                           cmp edx, eax
0x403098: 0F 85 98 00 00 00                               jnz 0x9e
0x40309E: A1 28 C0 40 00                                  mov eax, dword ptr [0x40c028]
0x4030A3: 89 85 0C FE FF FF                               mov dword ptr [ebp-0x1f4], eax
0x4030A9: A1 34 C0 40 00                                  mov eax, dword ptr [0x40c034]
0x4030AE: 89 85 08 FE FF FF                               mov dword ptr [ebp-0x1f8], eax
0x4030B4: 8B 85 08 FE FF FF                               mov eax, dword ptr [ebp-0x1f8]
0x4030BA: 3B 85 0C FE FF FF                               cmp eax, dword ptr [ebp-0x1f4]
0x4030C0: 7E 74                                           jle 0x76
0x4030C2: A1 2C C0 40 00                                  mov eax, dword ptr [0x40c02c]
0x4030C7: A3 28 C0 40 00                                  mov dword ptr [0x40c028], eax
0x4030CC: A1 04 80 40 00                                  mov eax, dword ptr [0x408004]
0x4030D1: 83 E8 04                                        sub eax, 0x4
0x4030D4: A3 04 80 40 00                                  mov dword ptr [0x408004], eax
0x4030D9: 8B 95 0C FE FF FF                               mov edx, dword ptr [ebp-0x1f4]
0x4030DF: 8B 85 08 FE FF FF                               mov eax, dword ptr [ebp-0x1f8]
0x4030E5: 01 D0                                           add eax, edx
0x4030E7: 89 85 04 FE FF FF                               mov dword ptr [ebp-0x1fc], eax
0x4030ED: A1 00 C0 40 00                                  mov eax, dword ptr [0x40c000]
0x4030F2: 8B 95 0C FE FF FF                               mov edx, dword ptr [ebp-0x1f4]
0x4030F8: 89 14 85 04 C0 40 00                            mov dword ptr [eax*4+0x40c004], edx
0x4030FF: A1 00 C0 40 00                                  mov eax, dword ptr [0x40c000]
0x403104: 8D 50 01                                        lea edx, ptr [eax+0x1]
0x403107: 8B 85 08 FE FF FF                               mov eax, dword ptr [ebp-0x1f8]
0x40310D: 89 04 95 04 C0 40 00                            mov dword ptr [edx*4+0x40c004], eax
0x403114: A1 00 C0 40 00                                  mov eax, dword ptr [0x40c000]
0x403119: 8D 50 02                                        lea edx, ptr [eax+0x2]
0x40311C: 8B 85 04 FE FF FF                               mov eax, dword ptr [ebp-0x1fc]
0x403122: 89 04 95 04 C0 40 00                            mov dword ptr [edx*4+0x40c004], eax
0x403129: A1 00 C0 40 00                                  mov eax, dword ptr [0x40c000]
0x40312E: 83 C0 03                                        add eax, 0x3
0x403131: A3 00 C0 40 00                                  mov dword ptr [0x40c000], eax
0x403136: A1 04 80 40 00                                  mov eax, dword ptr [0x408004]
0x40313B: 83 F8 04                                        cmp eax, 0x4
0x40313E: 0F 8E CF 00 00 00                               jle 0xd5
0x403144: A1 00 C0 40 00                                  mov eax, dword ptr [0x40c000]
0x403149: 83 C0 03                                        add eax, 0x3
0x40314C: 83 F8 06                                        cmp eax, 0x6
0x40314F: 0F 8F BE 00 00 00                               jnle 0xc4
0x403155: 8B 15 38 C0 40 00                               mov edx, dword ptr [0x40c038]
0x40315B: A1 2C C0 40 00                                  mov eax, dword ptr [0x40c02c]
0x403160: 39 C2                                           cmp edx, eax
0x403162: 0F 85 AB 00 00 00                               jnz 0xb1
0x403168: 8B 15 38 C0 40 00                               mov edx, dword ptr [0x40c038]
0x40316E: A1 30 C0 40 00                                  mov eax, dword ptr [0x40c030]
0x403173: 39 C2                                           cmp edx, eax
0x403175: 0F 85 98 00 00 00                               jnz 0x9e
0x40317B: A1 28 C0 40 00                                  mov eax, dword ptr [0x40c028]
0x403180: 89 85 00 FE FF FF                               mov dword ptr [ebp-0x200], eax
0x403186: A1 38 C0 40 00                                  mov eax, dword ptr [0x40c038]
0x40318B: 89 85 FC FD FF FF                               mov dword ptr [ebp-0x204], eax
0x403191: 8B 85 FC FD FF FF                               mov eax, dword ptr [ebp-0x204]
0x403197: 3B 85 00 FE FF FF                               cmp eax, dword ptr [ebp-0x200]
0x40319D: 7E 74                                           jle 0x76
0x40319F: A1 34 C0 40 00                                  mov eax, dword ptr [0x40c034]
0x4031A4: A3 28 C0 40 00                                  mov dword ptr [0x40c028], eax
0x4031A9: A1 04 80 40 00                                  mov eax, dword ptr [0x408004]
0x4031AE: 83 E8 04                                        sub eax, 0x4
0x4031B1: A3 04 80 40 00                                  mov dword ptr [0x408004], eax
0x4031B6: 8B 95 00 FE FF FF                               mov edx, dword ptr [ebp-0x200]
0x4031BC: 8B 85 FC FD FF FF                               mov eax, dword ptr [ebp-0x204]
0x4031C2: 01 D0                                           add eax, edx
0x4031C4: 89 85 F8 FD FF FF                               mov dword ptr [ebp-0x208], eax
0x4031CA: A1 00 C0 40 00                                  mov eax, dword ptr [0x40c000]
0x4031CF: 8B 95 00 FE FF FF                               mov edx, dword ptr [ebp-0x200]
0x4031D5: 89 14 85 04 C0 40 00                            mov dword ptr [eax*4+0x40c004], edx
0x4031DC: A1 00 C0 40 00                                  mov eax, dword ptr [0x40c000]
0x4031E1: 8D 50 01                                        lea edx, ptr [eax+0x1]
0x4031E4: 8B 85 FC FD FF FF                               mov eax, dword ptr [ebp-0x204]
0x4031EA: 89 04 95 04 C0 40 00                            mov dword ptr [edx*4+0x40c004], eax
0x4031F1: A1 00 C0 40 00                                  mov eax, dword ptr [0x40c000]
0x4031F6: 8D 50 02                                        lea edx, ptr [eax+0x2]
0x4031F9: 8B 85 F8 FD FF FF                               mov eax, dword ptr [ebp-0x208]
0x4031FF: 89 04 95 04 C0 40 00                            mov dword ptr [edx*4+0x40c004], eax
0x403206: A1 00 C0 40 00                                  mov eax, dword ptr [0x40c000]
0x40320B: 83 C0 03                                        add eax, 0x3
0x40320E: A3 00 C0 40 00                                  mov dword ptr [0x40c000], eax
0x403213: A1 04 80 40 00                                  mov eax, dword ptr [0x408004]
0x403218: 83 F8 04                                        cmp eax, 0x4
0x40321B: 0F 8E CF 00 00 00                               jle 0xd5
0x403221: A1 00 C0 40 00                                  mov eax, dword ptr [0x40c000]
0x403226: 83 C0 03                                        add eax, 0x3
0x403229: 83 F8 06                                        cmp eax, 0x6
0x40322C: 0F 8F BE 00 00 00                               jnle 0xc4
0x403232: 8B 15 38 C0 40 00                               mov edx, dword ptr [0x40c038]
0x403238: A1 2C C0 40 00                                  mov eax, dword ptr [0x40c02c]
0x40323D: 39 C2                                           cmp edx, eax
0x40323F: 0F 85 AB 00 00 00                               jnz 0xb1
0x403245: 8B 15 38 C0 40 00                               mov edx, dword ptr [0x40c038]
0x40324B: A1 34 C0 40 00                                  mov eax, dword ptr [0x40c034]
0x403250: 39 C2                                           cmp edx, eax
0x403252: 0F 85 98 00 00 00                               jnz 0x9e
0x403258: A1 28 C0 40 00                                  mov eax, dword ptr [0x40c028]
0x40325D: 89 85 F4 FD FF FF                               mov dword ptr [ebp-0x20c], eax
0x403263: A1 38 C0 40 00                                  mov eax, dword ptr [0x40c038]
0x403268: 89 85 F0 FD FF FF                               mov dword ptr [ebp-0x210], eax
0x40326E: 8B 85 F0 FD FF FF                               mov eax, dword ptr [ebp-0x210]
0x403274: 3B 85 F4 FD FF FF                               cmp eax, dword ptr [ebp-0x20c]
0x40327A: 7E 74                                           jle 0x76
0x40327C: A1 30 C0 40 00                                  mov eax, dword ptr [0x40c030]
0x403281: A3 28 C0 40 00                                  mov dword ptr [0x40c028], eax
0x403286: A1 04 80 40 00                                  mov eax, dword ptr [0x408004]
0x40328B: 83 E8 04                                        sub eax, 0x4
0x40328E: A3 04 80 40 00                                  mov dword ptr [0x408004], eax
0x403293: 8B 95 F4 FD FF FF                               mov edx, dword ptr [ebp-0x20c]
0x403299: 8B 85 F0 FD FF FF                               mov eax, dword ptr [ebp-0x210]
0x40329F: 01 D0                                           add eax, edx
0x4032A1: 89 85 EC FD FF FF                               mov dword ptr [ebp-0x214], eax
0x4032A7: A1 00 C0 40 00                                  mov eax, dword ptr [0x40c000]
0x4032AC: 8B 95 F4 FD FF FF                               mov edx, dword ptr [ebp-0x20c]
0x4032B2: 89 14 85 04 C0 40 00                            mov dword ptr [eax*4+0x40c004], edx
0x4032B9: A1 00 C0 40 00                                  mov eax, dword ptr [0x40c000]
0x4032BE: 8D 50 01                                        lea edx, ptr [eax+0x1]
0x4032C1: 8B 85 F0 FD FF FF                               mov eax, dword ptr [ebp-0x210]
0x4032C7: 89 04 95 04 C0 40 00                            mov dword ptr [edx*4+0x40c004], eax
0x4032CE: A1 00 C0 40 00                                  mov eax, dword ptr [0x40c000]
0x4032D3: 8D 50 02                                        lea edx, ptr [eax+0x2]
0x4032D6: 8B 85 EC FD FF FF                               mov eax, dword ptr [ebp-0x214]
0x4032DC: 89 04 95 04 C0 40 00                            mov dword ptr [edx*4+0x40c004], eax
0x4032E3: A1 00 C0 40 00                                  mov eax, dword ptr [0x40c000]
0x4032E8: 83 C0 03                                        add eax, 0x3
0x4032EB: A3 00 C0 40 00                                  mov dword ptr [0x40c000], eax
0x4032F0: A1 04 80 40 00                                  mov eax, dword ptr [0x408004]
0x4032F5: 83 F8 04                                        cmp eax, 0x4
0x4032F8: 0F 8E CF 00 00 00                               jle 0xd5
0x4032FE: A1 00 C0 40 00                                  mov eax, dword ptr [0x40c000]
0x403303: 83 C0 03                                        add eax, 0x3
0x403306: 83 F8 06                                        cmp eax, 0x6
0x403309: 0F 8F BE 00 00 00                               jnle 0xc4
0x40330F: 8B 15 38 C0 40 00                               mov edx, dword ptr [0x40c038]
0x403315: A1 30 C0 40 00                                  mov eax, dword ptr [0x40c030]
0x40331A: 39 C2                                           cmp edx, eax
0x40331C: 0F 85 AB 00 00 00                               jnz 0xb1
0x403322: 8B 15 38 C0 40 00                               mov edx, dword ptr [0x40c038]
0x403328: A1 2C C0 40 00                                  mov eax, dword ptr [0x40c02c]
0x40332D: 39 C2                                           cmp edx, eax
0x40332F: 0F 85 98 00 00 00                               jnz 0x9e
0x403335: A1 28 C0 40 00                                  mov eax, dword ptr [0x40c028]
0x40333A: 89 85 E8 FD FF FF                               mov dword ptr [ebp-0x218], eax
0x403340: A1 38 C0 40 00                                  mov eax, dword ptr [0x40c038]
0x403345: 89 85 E4 FD FF FF                               mov dword ptr [ebp-0x21c], eax
0x40334B: 8B 85 E4 FD FF FF                               mov eax, dword ptr [ebp-0x21c]
0x403351: 3B 85 E8 FD FF FF                               cmp eax, dword ptr [ebp-0x218]
0x403357: 7E 74                                           jle 0x76
0x403359: A1 34 C0 40 00                                  mov eax, dword ptr [0x40c034]
0x40335E: A3 28 C0 40 00                                  mov dword ptr [0x40c028], eax
0x403363: A1 04 80 40 00                                  mov eax, dword ptr [0x408004]
0x403368: 83 E8 04                                        sub eax, 0x4
0x40336B: A3 04 80 40 00                                  mov dword ptr [0x408004], eax
0x403370: 8B 95 E8 FD FF FF                               mov edx, dword ptr [ebp-0x218]
0x403376: 8B 85 E4 FD FF FF                               mov eax, dword ptr [ebp-0x21c]
0x40337C: 01 D0                                           add eax, edx
0x40337E: 89 85 E0 FD FF FF                               mov dword ptr [ebp-0x220], eax
0x403384: A1 00 C0 40 00                                  mov eax, dword ptr [0x40c000]
0x403389: 8B 95 E8 FD FF FF                               mov edx, dword ptr [ebp-0x218]
0x40338F: 89 14 85 04 C0 40 00                            mov dword ptr [eax*4+0x40c004], edx
0x403396: A1 00 C0 40 00                                  mov eax, dword ptr [0x40c000]
0x40339B: 8D 50 01                                        lea edx, ptr [eax+0x1]
0x40339E: 8B 85 E4 FD FF FF                               mov eax, dword ptr [ebp-0x21c]
0x4033A4: 89 04 95 04 C0 40 00                            mov dword ptr [edx*4+0x40c004], eax
0x4033AB: A1 00 C0 40 00                                  mov eax, dword ptr [0x40c000]
0x4033B0: 8D 50 02                                        lea edx, ptr [eax+0x2]
0x4033B3: 8B 85 E0 FD FF FF                               mov eax, dword ptr [ebp-0x220]
0x4033B9: 89 04 95 04 C0 40 00                            mov dword ptr [edx*4+0x40c004], eax
0x4033C0: A1 00 C0 40 00                                  mov eax, dword ptr [0x40c000]
0x4033C5: 83 C0 03                                        add eax, 0x3
0x4033C8: A3 00 C0 40 00                                  mov dword ptr [0x40c000], eax
0x4033CD: A1 04 80 40 00                                  mov eax, dword ptr [0x408004]
0x4033D2: 83 F8 04                                        cmp eax, 0x4
0x4033D5: 0F 8E CF 00 00 00                               jle 0xd5
0x4033DB: A1 00 C0 40 00                                  mov eax, dword ptr [0x40c000]
0x4033E0: 83 C0 03                                        add eax, 0x3
0x4033E3: 83 F8 06                                        cmp eax, 0x6
0x4033E6: 0F 8F BE 00 00 00                               jnle 0xc4
0x4033EC: 8B 15 38 C0 40 00                               mov edx, dword ptr [0x40c038]
0x4033F2: A1 30 C0 40 00                                  mov eax, dword ptr [0x40c030]
0x4033F7: 39 C2                                           cmp edx, eax
0x4033F9: 0F 85 AB 00 00 00                               jnz 0xb1
0x4033FF: 8B 15 38 C0 40 00                               mov edx, dword ptr [0x40c038]
0x403405: A1 34 C0 40 00                                  mov eax, dword ptr [0x40c034]
0x40340A: 39 C2                                           cmp edx, eax
0x40340C: 0F 85 98 00 00 00                               jnz 0x9e
0x403412: A1 28 C0 40 00                                  mov eax, dword ptr [0x40c028]
0x403417: 89 85 DC FD FF FF                               mov dword ptr [ebp-0x224], eax
0x40341D: A1 38 C0 40 00                                  mov eax, dword ptr [0x40c038]
0x403422: 89 85 D8 FD FF FF                               mov dword ptr [ebp-0x228], eax
0x403428: 8B 85 D8 FD FF FF                               mov eax, dword ptr [ebp-0x228]
0x40342E: 3B 85 DC FD FF FF                               cmp eax, dword ptr [ebp-0x224]
0x403434: 7E 74                                           jle 0x76
0x403436: A1 2C C0 40 00                                  mov eax, dword ptr [0x40c02c]
0x40343B: A3 28 C0 40 00                                  mov dword ptr [0x40c028], eax
0x403440: A1 04 80 40 00                                  mov eax, dword ptr [0x408004]
0x403445: 83 E8 04                                        sub eax, 0x4
0x403448: A3 04 80 40 00                                  mov dword ptr [0x408004], eax
0x40344D: 8B 95 DC FD FF FF                               mov edx, dword ptr [ebp-0x224]
0x403453: 8B 85 D8 FD FF FF                               mov eax, dword ptr [ebp-0x228]
0x403459: 01 D0                                           add eax, edx
0x40345B: 89 85 D4 FD FF FF                               mov dword ptr [ebp-0x22c], eax
0x403461: A1 00 C0 40 00                                  mov eax, dword ptr [0x40c000]
0x403466: 8B 95 DC FD FF FF                               mov edx, dword ptr [ebp-0x224]
0x40346C: 89 14 85 04 C0 40 00                            mov dword ptr [eax*4+0x40c004], edx
0x403473: A1 00 C0 40 00                                  mov eax, dword ptr [0x40c000]
0x403478: 8D 50 01                                        lea edx, ptr [eax+0x1]
0x40347B: 8B 85 D8 FD FF FF                               mov eax, dword ptr [ebp-0x228]
0x403481: 89 04 95 04 C0 40 00                            mov dword ptr [edx*4+0x40c004], eax
0x403488: A1 00 C0 40 00                                  mov eax, dword ptr [0x40c000]
0x40348D: 8D 50 02                                        lea edx, ptr [eax+0x2]
0x403490: 8B 85 D4 FD FF FF                               mov eax, dword ptr [ebp-0x22c]
0x403496: 89 04 95 04 C0 40 00                            mov dword ptr [edx*4+0x40c004], eax
0x40349D: A1 00 C0 40 00                                  mov eax, dword ptr [0x40c000]
0x4034A2: 83 C0 03                                        add eax, 0x3
0x4034A5: A3 00 C0 40 00                                  mov dword ptr [0x40c000], eax
0x4034AA: A1 04 80 40 00                                  mov eax, dword ptr [0x408004]
0x4034AF: 83 F8 04                                        cmp eax, 0x4
0x4034B2: 0F 8E CF 00 00 00                               jle 0xd5
0x4034B8: A1 00 C0 40 00                                  mov eax, dword ptr [0x40c000]
0x4034BD: 83 C0 03                                        add eax, 0x3
0x4034C0: 83 F8 06                                        cmp eax, 0x6
0x4034C3: 0F 8F BE 00 00 00                               jnle 0xc4
0x4034C9: 8B 15 38 C0 40 00                               mov edx, dword ptr [0x40c038]
0x4034CF: A1 34 C0 40 00                                  mov eax, dword ptr [0x40c034]
0x4034D4: 39 C2                                           cmp edx, eax
0x4034D6: 0F 85 AB 00 00 00                               jnz 0xb1
0x4034DC: 8B 15 38 C0 40 00                               mov edx, dword ptr [0x40c038]
0x4034E2: A1 2C C0 40 00                                  mov eax, dword ptr [0x40c02c]
0x4034E7: 39 C2                                           cmp edx, eax
0x4034E9: 0F 85 98 00 00 00                               jnz 0x9e
0x4034EF: A1 28 C0 40 00                                  mov eax, dword ptr [0x40c028]
0x4034F4: 89 85 D0 FD FF FF                               mov dword ptr [ebp-0x230], eax
0x4034FA: A1 38 C0 40 00                                  mov eax, dword ptr [0x40c038]
0x4034FF: 89 85 CC FD FF FF                               mov dword ptr [ebp-0x234], eax
0x403505: 8B 85 CC FD FF FF                               mov eax, dword ptr [ebp-0x234]
0x40350B: 3B 85 D0 FD FF FF                               cmp eax, dword ptr [ebp-0x230]
0x403511: 7E 74                                           jle 0x76
0x403513: A1 30 C0 40 00                                  mov eax, dword ptr [0x40c030]
0x403518: A3 28 C0 40 00                                  mov dword ptr [0x40c028], eax
0x40351D: A1 04 80 40 00                                  mov eax, dword ptr [0x408004]
0x403522: 83 E8 04                                        sub eax, 0x4
0x403525: A3 04 80 40 00                                  mov dword ptr [0x408004], eax
0x40352A: 8B 95 D0 FD FF FF                               mov edx, dword ptr [ebp-0x230]
0x403530: 8B 85 CC FD FF FF                               mov eax, dword ptr [ebp-0x234]
0x403536: 01 D0                                           add eax, edx
0x403538: 89 85 C8 FD FF FF                               mov dword ptr [ebp-0x238], eax
0x40353E: A1 00 C0 40 00                                  mov eax, dword ptr [0x40c000]
0x403543: 8B 95 D0 FD FF FF                               mov edx, dword ptr [ebp-0x230]
0x403549: 89 14 85 04 C0 40 00                            mov dword ptr [eax*4+0x40c004], edx
0x403550: A1 00 C0 40 00                                  mov eax, dword ptr [0x40c000]
0x403555: 8D 50 01                                        lea edx, ptr [eax+0x1]
0x403558: 8B 85 CC FD FF FF                               mov eax, dword ptr [ebp-0x234]
0x40355E: 89 04 95 04 C0 40 00                            mov dword ptr [edx*4+0x40c004], eax
0x403565: A1 00 C0 40 00                                  mov eax, dword ptr [0x40c000]
0x40356A: 8D 50 02                                        lea edx, ptr [eax+0x2]
0x40356D: 8B 85 C8 FD FF FF                               mov eax, dword ptr [ebp-0x238]
0x403573: 89 04 95 04 C0 40 00                            mov dword ptr [edx*4+0x40c004], eax
0x40357A: A1 00 C0 40 00                                  mov eax, dword ptr [0x40c000]
0x40357F: 83 C0 03                                        add eax, 0x3
0x403582: A3 00 C0 40 00                                  mov dword ptr [0x40c000], eax
0x403587: A1 04 80 40 00                                  mov eax, dword ptr [0x408004]
0x40358C: 83 F8 04                                        cmp eax, 0x4
0x40358F: 0F 8E CF 00 00 00                               jle 0xd5
0x403595: A1 00 C0 40 00                                  mov eax, dword ptr [0x40c000]
0x40359A: 83 C0 03                                        add eax, 0x3
0x40359D: 83 F8 06                                        cmp eax, 0x6
0x4035A0: 0F 8F BE 00 00 00                               jnle 0xc4
0x4035A6: 8B 15 38 C0 40 00                               mov edx, dword ptr [0x40c038]
0x4035AC: A1 34 C0 40 00                                  mov eax, dword ptr [0x40c034]
0x4035B1: 39 C2                                           cmp edx, eax
0x4035B3: 0F 85 AB 00 00 00                               jnz 0xb1
0x4035B9: 8B 15 38 C0 40 00                               mov edx, dword ptr [0x40c038]
0x4035BF: A1 30 C0 40 00                                  mov eax, dword ptr [0x40c030]
0x4035C4: 39 C2                                           cmp edx, eax
0x4035C6: 0F 85 98 00 00 00                               jnz 0x9e
0x4035CC: A1 28 C0 40 00                                  mov eax, dword ptr [0x40c028]
0x4035D1: 89 85 C4 FD FF FF                               mov dword ptr [ebp-0x23c], eax
0x4035D7: A1 38 C0 40 00                                  mov eax, dword ptr [0x40c038]
0x4035DC: 89 85 C0 FD FF FF                               mov dword ptr [ebp-0x240], eax
0x4035E2: 8B 85 C0 FD FF FF                               mov eax, dword ptr [ebp-0x240]
0x4035E8: 3B 85 C4 FD FF FF                               cmp eax, dword ptr [ebp-0x23c]
0x4035EE: 7E 74                                           jle 0x76
0x4035F0: A1 2C C0 40 00                                  mov eax, dword ptr [0x40c02c]
0x4035F5: A3 28 C0 40 00                                  mov dword ptr [0x40c028], eax
0x4035FA: A1 04 80 40 00                                  mov eax, dword ptr [0x408004]
0x4035FF: 83 E8 04                                        sub eax, 0x4
0x403602: A3 04 80 40 00                                  mov dword ptr [0x408004], eax
0x403607: 8B 95 C4 FD FF FF                               mov edx, dword ptr [ebp-0x23c]
0x40360D: 8B 85 C0 FD FF FF                               mov eax, dword ptr [ebp-0x240]
0x403613: 01 D0                                           add eax, edx
0x403615: 89 85 BC FD FF FF                               mov dword ptr [ebp-0x244], eax
0x40361B: A1 00 C0 40 00                                  mov eax, dword ptr [0x40c000]
0x403620: 8B 95 C4 FD FF FF                               mov edx, dword ptr [ebp-0x23c]
0x403626: 89 14 85 04 C0 40 00                            mov dword ptr [eax*4+0x40c004], edx
0x40362D: A1 00 C0 40 00                                  mov eax, dword ptr [0x40c000]
0x403632: 8D 50 01                                        lea edx, ptr [eax+0x1]
0x403635: 8B 85 C0 FD FF FF                               mov eax, dword ptr [ebp-0x240]
0x40363B: 89 04 95 04 C0 40 00                            mov dword ptr [edx*4+0x40c004], eax
0x403642: A1 00 C0 40 00                                  mov eax, dword ptr [0x40c000]
0x403647: 8D 50 02                                        lea edx, ptr [eax+0x2]
0x40364A: 8B 85 BC FD FF FF                               mov eax, dword ptr [ebp-0x244]
0x403650: 89 04 95 04 C0 40 00                            mov dword ptr [edx*4+0x40c004], eax
0x403657: A1 00 C0 40 00                                  mov eax, dword ptr [0x40c000]
0x40365C: 83 C0 03                                        add eax, 0x3
0x40365F: A3 00 C0 40 00                                  mov dword ptr [0x40c000], eax
0x403664: A1 04 80 40 00                                  mov eax, dword ptr [0x408004]
0x403669: 83 F8 04                                        cmp eax, 0x4
0x40366C: 0F 8E CF 00 00 00                               jle 0xd5
0x403672: A1 00 C0 40 00                                  mov eax, dword ptr [0x40c000]
0x403677: 83 C0 03                                        add eax, 0x3
0x40367A: 83 F8 06                                        cmp eax, 0x6
0x40367D: 0F 8F BE 00 00 00                               jnle 0xc4
0x403683: 8B 15 28 C0 40 00                               mov edx, dword ptr [0x40c028]
0x403689: A1 30 C0 40 00                                  mov eax, dword ptr [0x40c030]
0x40368E: 39 C2                                           cmp edx, eax
0x403690: 0F 85 AB 00 00 00                               jnz 0xb1
0x403696: 8B 15 28 C0 40 00                               mov edx, dword ptr [0x40c028]
0x40369C: A1 38 C0 40 00                                  mov eax, dword ptr [0x40c038]
0x4036A1: 39 C2                                           cmp edx, eax
0x4036A3: 0F 85 98 00 00 00                               jnz 0x9e
0x4036A9: A1 2C C0 40 00                                  mov eax, dword ptr [0x40c02c]
0x4036AE: 89 85 B8 FD FF FF                               mov dword ptr [ebp-0x248], eax
0x4036B4: A1 28 C0 40 00                                  mov eax, dword ptr [0x40c028]
0x4036B9: 89 85 B4 FD FF FF                               mov dword ptr [ebp-0x24c], eax
0x4036BF: 8B 85 B4 FD FF FF                               mov eax, dword ptr [ebp-0x24c]
0x4036C5: 3B 85 B8 FD FF FF                               cmp eax, dword ptr [ebp-0x248]
0x4036CB: 7E 74                                           jle 0x76
0x4036CD: A1 34 C0 40 00                                  mov eax, dword ptr [0x40c034]
0x4036D2: A3 28 C0 40 00                                  mov dword ptr [0x40c028], eax
0x4036D7: A1 04 80 40 00                                  mov eax, dword ptr [0x408004]
0x4036DC: 83 E8 04                                        sub eax, 0x4
0x4036DF: A3 04 80 40 00                                  mov dword ptr [0x408004], eax
0x4036E4: 8B 95 B8 FD FF FF                               mov edx, dword ptr [ebp-0x248]
0x4036EA: 8B 85 B4 FD FF FF                               mov eax, dword ptr [ebp-0x24c]
0x4036F0: 01 D0                                           add eax, edx
0x4036F2: 89 85 B0 FD FF FF                               mov dword ptr [ebp-0x250], eax
0x4036F8: A1 00 C0 40 00                                  mov eax, dword ptr [0x40c000]
0x4036FD: 8B 95 B8 FD FF FF                               mov edx, dword ptr [ebp-0x248]
0x403703: 89 14 85 04 C0 40 00                            mov dword ptr [eax*4+0x40c004], edx
0x40370A: A1 00 C0 40 00                                  mov eax, dword ptr [0x40c000]
0x40370F: 8D 50 01                                        lea edx, ptr [eax+0x1]
0x403712: 8B 85 B4 FD FF FF                               mov eax, dword ptr [ebp-0x24c]
0x403718: 89 04 95 04 C0 40 00                            mov dword ptr [edx*4+0x40c004], eax
0x40371F: A1 00 C0 40 00                                  mov eax, dword ptr [0x40c000]
0x403724: 8D 50 02                                        lea edx, ptr [eax+0x2]
0x403727: 8B 85 B0 FD FF FF                               mov eax, dword ptr [ebp-0x250]
0x40372D: 89 04 95 04 C0 40 00                            mov dword ptr [edx*4+0x40c004], eax
0x403734: A1 00 C0 40 00                                  mov eax, dword ptr [0x40c000]
0x403739: 83 C0 03                                        add eax, 0x3
0x40373C: A3 00 C0 40 00                                  mov dword ptr [0x40c000], eax
0x403741: A1 04 80 40 00                                  mov eax, dword ptr [0x408004]
0x403746: 83 F8 04                                        cmp eax, 0x4
0x403749: 0F 8E CF 00 00 00                               jle 0xd5
0x40374F: A1 00 C0 40 00                                  mov eax, dword ptr [0x40c000]
0x403754: 83 C0 03                                        add eax, 0x3
0x403757: 83 F8 06                                        cmp eax, 0x6
0x40375A: 0F 8F BE 00 00 00                               jnle 0xc4
0x403760: 8B 15 28 C0 40 00                               mov edx, dword ptr [0x40c028]
0x403766: A1 34 C0 40 00                                  mov eax, dword ptr [0x40c034]
0x40376B: 39 C2                                           cmp edx, eax
0x40376D: 0F 85 AB 00 00 00                               jnz 0xb1
0x403773: 8B 15 28 C0 40 00                               mov edx, dword ptr [0x40c028]
0x403779: A1 38 C0 40 00                                  mov eax, dword ptr [0x40c038]
0x40377E: 39 C2                                           cmp edx, eax
0x403780: 0F 85 98 00 00 00                               jnz 0x9e
0x403786: A1 2C C0 40 00                                  mov eax, dword ptr [0x40c02c]
0x40378B: 89 85 AC FD FF FF                               mov dword ptr [ebp-0x254], eax
0x403791: A1 28 C0 40 00                                  mov eax, dword ptr [0x40c028]
0x403796: 89 85 A8 FD FF FF                               mov dword ptr [ebp-0x258], eax
0x40379C: 8B 85 A8 FD FF FF                               mov eax, dword ptr [ebp-0x258]
0x4037A2: 3B 85 AC FD FF FF                               cmp eax, dword ptr [ebp-0x254]
0x4037A8: 7E 74                                           jle 0x76
0x4037AA: A1 30 C0 40 00                                  mov eax, dword ptr [0x40c030]
0x4037AF: A3 28 C0 40 00                                  mov dword ptr [0x40c028], eax
0x4037B4: A1 04 80 40 00                                  mov eax, dword ptr [0x408004]
0x4037B9: 83 E8 04                                        sub eax, 0x4
0x4037BC: A3 04 80 40 00                                  mov dword ptr [0x408004], eax
0x4037C1: 8B 95 AC FD FF FF                               mov edx, dword ptr [ebp-0x254]
0x4037C7: 8B 85 A8 FD FF FF                               mov eax, dword ptr [ebp-0x258]
0x4037CD: 01 D0                                           add eax, edx
0x4037CF: 89 85 A4 FD FF FF                               mov dword ptr [ebp-0x25c], eax
0x4037D5: A1 00 C0 40 00                                  mov eax, dword ptr [0x40c000]
0x4037DA: 8B 95 AC FD FF FF                               mov edx, dword ptr [ebp-0x254]
0x4037E0: 89 14 85 04 C0 40 00                            mov dword ptr [eax*4+0x40c004], edx
0x4037E7: A1 00 C0 40 00                                  mov eax, dword ptr [0x40c000]
0x4037EC: 8D 50 01                                        lea edx, ptr [eax+0x1]
0x4037EF: 8B 85 A8 FD FF FF                               mov eax, dword ptr [ebp-0x258]
0x4037F5: 89 04 95 04 C0 40 00                            mov dword ptr [edx*4+0x40c004], eax
0x4037FC: A1 00 C0 40 00                                  mov eax, dword ptr [0x40c000]
0x403801: 8D 50 02                                        lea edx, ptr [eax+0x2]
0x403804: 8B 85 A4 FD FF FF                               mov eax, dword ptr [ebp-0x25c]
0x40380A: 89 04 95 04 C0 40 00                            mov dword ptr [edx*4+0x40c004], eax
0x403811: A1 00 C0 40 00                                  mov eax, dword ptr [0x40c000]
0x403816: 83 C0 03                                        add eax, 0x3
0x403819: A3 00 C0 40 00                                  mov dword ptr [0x40c000], eax
0x40381E: A1 04 80 40 00                                  mov eax, dword ptr [0x408004]
0x403823: 83 F8 04                                        cmp eax, 0x4
0x403826: 0F 8E CF 00 00 00                               jle 0xd5
0x40382C: A1 00 C0 40 00                                  mov eax, dword ptr [0x40c000]
0x403831: 83 C0 03                                        add eax, 0x3
0x403834: 83 F8 06                                        cmp eax, 0x6
0x403837: 0F 8F BE 00 00 00                               jnle 0xc4
0x40383D: 8B 15 28 C0 40 00                               mov edx, dword ptr [0x40c028]
0x403843: A1 38 C0 40 00                                  mov eax, dword ptr [0x40c038]
0x403848: 39 C2                                           cmp edx, eax
0x40384A: 0F 85 AB 00 00 00                               jnz 0xb1
0x403850: 8B 15 28 C0 40 00                               mov edx, dword ptr [0x40c028]
0x403856: A1 30 C0 40 00                                  mov eax, dword ptr [0x40c030]
0x40385B: 39 C2                                           cmp edx, eax
0x40385D: 0F 85 98 00 00 00                               jnz 0x9e
0x403863: A1 2C C0 40 00                                  mov eax, dword ptr [0x40c02c]
0x403868: 89 85 A0 FD FF FF                               mov dword ptr [ebp-0x260], eax
0x40386E: A1 28 C0 40 00                                  mov eax, dword ptr [0x40c028]
0x403873: 89 85 9C FD FF FF                               mov dword ptr [ebp-0x264], eax
0x403879: 8B 85 9C FD FF FF                               mov eax, dword ptr [ebp-0x264]
0x40387F: 3B 85 A0 FD FF FF                               cmp eax, dword ptr [ebp-0x260]
0x403885: 7E 74                                           jle 0x76
0x403887: A1 34 C0 40 00                                  mov eax, dword ptr [0x40c034]
0x40388C: A3 28 C0 40 00                                  mov dword ptr [0x40c028], eax
0x403891: A1 04 80 40 00                                  mov eax, dword ptr [0x408004]
0x403896: 83 E8 04                                        sub eax, 0x4
0x403899: A3 04 80 40 00                                  mov dword ptr [0x408004], eax
0x40389E: 8B 95 A0 FD FF FF                               mov edx, dword ptr [ebp-0x260]
0x4038A4: 8B 85 9C FD FF FF                               mov eax, dword ptr [ebp-0x264]
0x4038AA: 01 D0                                           add eax, edx
0x4038AC: 89 85 98 FD FF FF                               mov dword ptr [ebp-0x268], eax
0x4038B2: A1 00 C0 40 00                                  mov eax, dword ptr [0x40c000]
0x4038B7: 8B 95 A0 FD FF FF                               mov edx, dword ptr [ebp-0x260]
0x4038BD: 89 14 85 04 C0 40 00                            mov dword ptr [eax*4+0x40c004], edx
0x4038C4: A1 00 C0 40 00                                  mov eax, dword ptr [0x40c000]
0x4038C9: 8D 50 01                                        lea edx, ptr [eax+0x1]
0x4038CC: 8B 85 9C FD FF FF                               mov eax, dword ptr [ebp-0x264]
0x4038D2: 89 04 95 04 C0 40 00                            mov dword ptr [edx*4+0x40c004], eax
0x4038D9: A1 00 C0 40 00                                  mov eax, dword ptr [0x40c000]
0x4038DE: 8D 50 02                                        lea edx, ptr [eax+0x2]
0x4038E1: 8B 85 98 FD FF FF                               mov eax, dword ptr [ebp-0x268]
0x4038E7: 89 04 95 04 C0 40 00                            mov dword ptr [edx*4+0x40c004], eax
0x4038EE: A1 00 C0 40 00                                  mov eax, dword ptr [0x40c000]
0x4038F3: 83 C0 03                                        add eax, 0x3
0x4038F6: A3 00 C0 40 00                                  mov dword ptr [0x40c000], eax
0x4038FB: A1 04 80 40 00                                  mov eax, dword ptr [0x408004]
0x403900: 83 F8 04                                        cmp eax, 0x4
0x403903: 0F 8E CF 00 00 00                               jle 0xd5
0x403909: A1 00 C0 40 00                                  mov eax, dword ptr [0x40c000]
0x40390E: 83 C0 03                                        add eax, 0x3
0x403911: 83 F8 06                                        cmp eax, 0x6
0x403914: 0F 8F BE 00 00 00                               jnle 0xc4
0x40391A: 8B 15 28 C0 40 00                               mov edx, dword ptr [0x40c028]
0x403920: A1 38 C0 40 00                                  mov eax, dword ptr [0x40c038]
0x403925: 39 C2                                           cmp edx, eax
0x403927: 0F 85 AB 00 00 00                               jnz 0xb1
0x40392D: 8B 15 28 C0 40 00                               mov edx, dword ptr [0x40c028]
0x403933: A1 34 C0 40 00                                  mov eax, dword ptr [0x40c034]
0x403938: 39 C2                                           cmp edx, eax
0x40393A: 0F 85 98 00 00 00                               jnz 0x9e
0x403940: A1 2C C0 40 00                                  mov eax, dword ptr [0x40c02c]
0x403945: 89 85 94 FD FF FF                               mov dword ptr [ebp-0x26c], eax
0x40394B: A1 28 C0 40 00                                  mov eax, dword ptr [0x40c028]
0x403950: 89 85 90 FD FF FF                               mov dword ptr [ebp-0x270], eax
0x403956: 8B 85 90 FD FF FF                               mov eax, dword ptr [ebp-0x270]
0x40395C: 3B 85 94 FD FF FF                               cmp eax, dword ptr [ebp-0x26c]
0x403962: 7E 74                                           jle 0x76
0x403964: A1 30 C0 40 00                                  mov eax, dword ptr [0x40c030]
0x403969: A3 28 C0 40 00                                  mov dword ptr [0x40c028], eax
0x40396E: A1 04 80 40 00                                  mov eax, dword ptr [0x408004]
0x403973: 83 E8 04                                        sub eax, 0x4
0x403976: A3 04 80 40 00                                  mov dword ptr [0x408004], eax
0x40397B: 8B 95 94 FD FF FF                               mov edx, dword ptr [ebp-0x26c]
0x403981: 8B 85 90 FD FF FF                               mov eax, dword ptr [ebp-0x270]
0x403987: 01 D0                                           add eax, edx
0x403989: 89 85 8C FD FF FF                               mov dword ptr [ebp-0x274], eax
0x40398F: A1 00 C0 40 00                                  mov eax, dword ptr [0x40c000]
0x403994: 8B 95 94 FD FF FF                               mov edx, dword ptr [ebp-0x26c]
0x40399A: 89 14 85 04 C0 40 00                            mov dword ptr [eax*4+0x40c004], edx
0x4039A1: A1 00 C0 40 00                                  mov eax, dword ptr [0x40c000]
0x4039A6: 8D 50 01                                        lea edx, ptr [eax+0x1]
0x4039A9: 8B 85 90 FD FF FF                               mov eax, dword ptr [ebp-0x270]
0x4039AF: 89 04 95 04 C0 40 00                            mov dword ptr [edx*4+0x40c004], eax
0x4039B6: A1 00 C0 40 00                                  mov eax, dword ptr [0x40c000]
0x4039BB: 8D 50 02                                        lea edx, ptr [eax+0x2]
0x4039BE: 8B 85 8C FD FF FF                               mov eax, dword ptr [ebp-0x274]
0x4039C4: 89 04 95 04 C0 40 00                            mov dword ptr [edx*4+0x40c004], eax
0x4039CB: A1 00 C0 40 00                                  mov eax, dword ptr [0x40c000]
0x4039D0: 83 C0 03                                        add eax, 0x3
0x4039D3: A3 00 C0 40 00                                  mov dword ptr [0x40c000], eax
0x4039D8: A1 04 80 40 00                                  mov eax, dword ptr [0x408004]
0x4039DD: 83 F8 04                                        cmp eax, 0x4
0x4039E0: 0F 8E CF 00 00 00                               jle 0xd5
0x4039E6: A1 00 C0 40 00                                  mov eax, dword ptr [0x40c000]
0x4039EB: 83 C0 03                                        add eax, 0x3
0x4039EE: 83 F8 06                                        cmp eax, 0x6
0x4039F1: 0F 8F BE 00 00 00                               jnle 0xc4
0x4039F7: 8B 15 30 C0 40 00                               mov edx, dword ptr [0x40c030]
0x4039FD: A1 28 C0 40 00                                  mov eax, dword ptr [0x40c028]
0x403A02: 39 C2                                           cmp edx, eax
0x403A04: 0F 85 AB 00 00 00                               jnz 0xb1
0x403A0A: 8B 15 30 C0 40 00                               mov edx, dword ptr [0x40c030]
0x403A10: A1 38 C0 40 00                                  mov eax, dword ptr [0x40c038]
0x403A15: 39 C2                                           cmp edx, eax
0x403A17: 0F 85 98 00 00 00                               jnz 0x9e
0x403A1D: A1 2C C0 40 00                                  mov eax, dword ptr [0x40c02c]
0x403A22: 89 85 88 FD FF FF                               mov dword ptr [ebp-0x278], eax
0x403A28: A1 30 C0 40 00                                  mov eax, dword ptr [0x40c030]
0x403A2D: 89 85 84 FD FF FF                               mov dword ptr [ebp-0x27c], eax
0x403A33: 8B 85 84 FD FF FF                               mov eax, dword ptr [ebp-0x27c]
0x403A39: 3B 85 88 FD FF FF                               cmp eax, dword ptr [ebp-0x278]
0x403A3F: 7E 74                                           jle 0x76
0x403A41: A1 34 C0 40 00                                  mov eax, dword ptr [0x40c034]
0x403A46: A3 28 C0 40 00                                  mov dword ptr [0x40c028], eax
0x403A4B: A1 04 80 40 00                                  mov eax, dword ptr [0x408004]
0x403A50: 83 E8 04                                        sub eax, 0x4
0x403A53: A3 04 80 40 00                                  mov dword ptr [0x408004], eax
0x403A58: 8B 95 88 FD FF FF                               mov edx, dword ptr [ebp-0x278]
0x403A5E: 8B 85 84 FD FF FF                               mov eax, dword ptr [ebp-0x27c]
0x403A64: 01 D0                                           add eax, edx
0x403A66: 89 85 80 FD FF FF                               mov dword ptr [ebp-0x280], eax
0x403A6C: A1 00 C0 40 00                                  mov eax, dword ptr [0x40c000]
0x403A71: 8B 95 88 FD FF FF                               mov edx, dword ptr [ebp-0x278]
0x403A77: 89 14 85 04 C0 40 00                            mov dword ptr [eax*4+0x40c004], edx
0x403A7E: A1 00 C0 40 00                                  mov eax, dword ptr [0x40c000]
0x403A83: 8D 50 01                                        lea edx, ptr [eax+0x1]
0x403A86: 8B 85 84 FD FF FF                               mov eax, dword ptr [ebp-0x27c]
0x403A8C: 89 04 95 04 C0 40 00                            mov dword ptr [edx*4+0x40c004], eax
0x403A93: A1 00 C0 40 00                                  mov eax, dword ptr [0x40c000]
0x403A98: 8D 50 02                                        lea edx, ptr [eax+0x2]
0x403A9B: 8B 85 80 FD FF FF                               mov eax, dword ptr [ebp-0x280]
0x403AA1: 89 04 95 04 C0 40 00                            mov dword ptr [edx*4+0x40c004], eax
0x403AA8: A1 00 C0 40 00                                  mov eax, dword ptr [0x40c000]
0x403AAD: 83 C0 03                                        add eax, 0x3
0x403AB0: A3 00 C0 40 00                                  mov dword ptr [0x40c000], eax
0x403AB5: A1 04 80 40 00                                  mov eax, dword ptr [0x408004]
0x403ABA: 83 F8 04                                        cmp eax, 0x4
0x403ABD: 0F 8E C5 00 00 00                               jle 0xcb
0x403AC3: A1 00 C0 40 00                                  mov eax, dword ptr [0x40c000]
0x403AC8: 83 C0 03                                        add eax, 0x3
0x403ACB: 83 F8 06                                        cmp eax, 0x6
0x403ACE: 0F 8F B4 00 00 00                               jnle 0xba
0x403AD4: 8B 15 30 C0 40 00                               mov edx, dword ptr [0x40c030]
0x403ADA: A1 34 C0 40 00                                  mov eax, dword ptr [0x40c034]
0x403ADF: 39 C2                                           cmp edx, eax
0x403AE1: 0F 85 A1 00 00 00                               jnz 0xa7
0x403AE7: 8B 15 30 C0 40 00                               mov edx, dword ptr [0x40c030]
0x403AED: A1 38 C0 40 00                                  mov eax, dword ptr [0x40c038]
0x403AF2: 39 C2                                           cmp edx, eax
0x403AF4: 0F 85 8E 00 00 00                               jnz 0x94
0x403AFA: A1 2C C0 40 00                                  mov eax, dword ptr [0x40c02c]
0x403AFF: 89 85 7C FD FF FF                               mov dword ptr [ebp-0x284], eax
0x403B05: A1 30 C0 40 00                                  mov eax, dword ptr [0x40c030]
0x403B0A: 89 85 78 FD FF FF                               mov dword ptr [ebp-0x288], eax
0x403B10: 8B 85 78 FD FF FF                               mov eax, dword ptr [ebp-0x288]
0x403B16: 3B 85 7C FD FF FF                               cmp eax, dword ptr [ebp-0x284]
0x403B1C: 7E 6A                                           jle 0x6c
0x403B1E: A1 04 80 40 00                                  mov eax, dword ptr [0x408004]
0x403B23: 83 E8 04                                        sub eax, 0x4
0x403B26: A3 04 80 40 00                                  mov dword ptr [0x408004], eax
0x403B2B: 8B 95 7C FD FF FF                               mov edx, dword ptr [ebp-0x284]
0x403B31: 8B 85 78 FD FF FF                               mov eax, dword ptr [ebp-0x288]
0x403B37: 01 D0                                           add eax, edx
0x403B39: 89 85 74 FD FF FF                               mov dword ptr [ebp-0x28c], eax
0x403B3F: A1 00 C0 40 00                                  mov eax, dword ptr [0x40c000]
0x403B44: 8B 95 7C FD FF FF                               mov edx, dword ptr [ebp-0x284]
0x403B4A: 89 14 85 04 C0 40 00                            mov dword ptr [eax*4+0x40c004], edx
0x403B51: A1 00 C0 40 00                                  mov eax, dword ptr [0x40c000]
0x403B56: 8D 50 01                                        lea edx, ptr [eax+0x1]
0x403B59: 8B 85 78 FD FF FF                               mov eax, dword ptr [ebp-0x288]
0x403B5F: 89 04 95 04 C0 40 00                            mov dword ptr [edx*4+0x40c004], eax
0x403B66: A1 00 C0 40 00                                  mov eax, dword ptr [0x40c000]
0x403B6B: 8D 50 02                                        lea edx, ptr [eax+0x2]
0x403B6E: 8B 85 74 FD FF FF                               mov eax, dword ptr [ebp-0x28c]
0x403B74: 89 04 95 04 C0 40 00                            mov dword ptr [edx*4+0x40c004], eax
0x403B7B: A1 00 C0 40 00                                  mov eax, dword ptr [0x40c000]
0x403B80: 83 C0 03                                        add eax, 0x3
0x403B83: A3 00 C0 40 00                                  mov dword ptr [0x40c000], eax
0x403B88: A1 04 80 40 00                                  mov eax, dword ptr [0x408004]
0x403B8D: 83 F8 04                                        cmp eax, 0x4
0x403B90: 0F 8E CF 00 00 00                               jle 0xd5
0x403B96: A1 00 C0 40 00                                  mov eax, dword ptr [0x40c000]
0x403B9B: 83 C0 03                                        add eax, 0x3
0x403B9E: 83 F8 06                                        cmp eax, 0x6
0x403BA1: 0F 8F BE 00 00 00                               jnle 0xc4
0x403BA7: 8B 15 30 C0 40 00                               mov edx, dword ptr [0x40c030]
0x403BAD: A1 38 C0 40 00                                  mov eax, dword ptr [0x40c038]
0x403BB2: 39 C2                                           cmp edx, eax
0x403BB4: 0F 85 AB 00 00 00                               jnz 0xb1
0x403BBA: 8B 15 30 C0 40 00                               mov edx, dword ptr [0x40c030]
0x403BC0: A1 28 C0 40 00                                  mov eax, dword ptr [0x40c028]
0x403BC5: 39 C2                                           cmp edx, eax
0x403BC7: 0F 85 98 00 00 00                               jnz 0x9e
0x403BCD: A1 2C C0 40 00                                  mov eax, dword ptr [0x40c02c]
0x403BD2: 89 85 70 FD FF FF                               mov dword ptr [ebp-0x290], eax
0x403BD8: A1 30 C0 40 00                                  mov eax, dword ptr [0x40c030]
0x403BDD: 89 85 6C FD FF FF                               mov dword ptr [ebp-0x294], eax
0x403BE3: 8B 85 6C FD FF FF                               mov eax, dword ptr [ebp-0x294]
0x403BE9: 3B 85 70 FD FF FF                               cmp eax, dword ptr [ebp-0x290]
0x403BEF: 7E 74                                           jle 0x76
0x403BF1: A1 34 C0 40 00                                  mov eax, dword ptr [0x40c034]
0x403BF6: A3 28 C0 40 00                                  mov dword ptr [0x40c028], eax
0x403BFB: A1 04 80 40 00                                  mov eax, dword ptr [0x408004]
0x403C00: 83 E8 04                                        sub eax, 0x4
0x403C03: A3 04 80 40 00                                  mov dword ptr [0x408004], eax
0x403C08: 8B 95 70 FD FF FF                               mov edx, dword ptr [ebp-0x290]
0x403C0E: 8B 85 6C FD FF FF                               mov eax, dword ptr [ebp-0x294]
0x403C14: 01 D0                                           add eax, edx
0x403C16: 89 85 68 FD FF FF                               mov dword ptr [ebp-0x298], eax
0x403C1C: A1 00 C0 40 00                                  mov eax, dword ptr [0x40c000]
0x403C21: 8B 95 70 FD FF FF                               mov edx, dword ptr [ebp-0x290]
0x403C27: 89 14 85 04 C0 40 00                            mov dword ptr [eax*4+0x40c004], edx
0x403C2E: A1 00 C0 40 00                                  mov eax, dword ptr [0x40c000]
0x403C33: 8D 50 01                                        lea edx, ptr [eax+0x1]
0x403C36: 8B 85 6C FD FF FF                               mov eax, dword ptr [ebp-0x294]
0x403C3C: 89 04 95 04 C0 40 00                            mov dword ptr [edx*4+0x40c004], eax
0x403C43: A1 00 C0 40 00                                  mov eax, dword ptr [0x40c000]
0x403C48: 8D 50 02                                        lea edx, ptr [eax+0x2]
0x403C4B: 8B 85 68 FD FF FF                               mov eax, dword ptr [ebp-0x298]
0x403C51: 89 04 95 04 C0 40 00                            mov dword ptr [edx*4+0x40c004], eax
0x403C58: A1 00 C0 40 00                                  mov eax, dword ptr [0x40c000]
0x403C5D: 83 C0 03                                        add eax, 0x3
0x403C60: A3 00 C0 40 00                                  mov dword ptr [0x40c000], eax
0x403C65: A1 04 80 40 00                                  mov eax, dword ptr [0x408004]
0x403C6A: 83 F8 04                                        cmp eax, 0x4
0x403C6D: 0F 8E C5 00 00 00                               jle 0xcb
0x403C73: A1 00 C0 40 00                                  mov eax, dword ptr [0x40c000]
0x403C78: 83 C0 03                                        add eax, 0x3
0x403C7B: 83 F8 06                                        cmp eax, 0x6
0x403C7E: 0F 8F B4 00 00 00                               jnle 0xba
0x403C84: 8B 15 30 C0 40 00                               mov edx, dword ptr [0x40c030]
0x403C8A: A1 38 C0 40 00                                  mov eax, dword ptr [0x40c038]
0x403C8F: 39 C2                                           cmp edx, eax
0x403C91: 0F 85 A1 00 00 00                               jnz 0xa7
0x403C97: 8B 15 30 C0 40 00                               mov edx, dword ptr [0x40c030]
0x403C9D: A1 34 C0 40 00                                  mov eax, dword ptr [0x40c034]
0x403CA2: 39 C2                                           cmp edx, eax
0x403CA4: 0F 85 8E 00 00 00                               jnz 0x94
0x403CAA: A1 2C C0 40 00                                  mov eax, dword ptr [0x40c02c]
0x403CAF: 89 85 64 FD FF FF                               mov dword ptr [ebp-0x29c], eax
0x403CB5: A1 30 C0 40 00                                  mov eax, dword ptr [0x40c030]
0x403CBA: 89 85 60 FD FF FF                               mov dword ptr [ebp-0x2a0], eax
0x403CC0: 8B 85 60 FD FF FF                               mov eax, dword ptr [ebp-0x2a0]
0x403CC6: 3B 85 64 FD FF FF                               cmp eax, dword ptr [ebp-0x29c]
0x403CCC: 7E 6A                                           jle 0x6c
0x403CCE: A1 04 80 40 00                                  mov eax, dword ptr [0x408004]
0x403CD3: 83 E8 04                                        sub eax, 0x4
0x403CD6: A3 04 80 40 00                                  mov dword ptr [0x408004], eax
0x403CDB: 8B 95 64 FD FF FF                               mov edx, dword ptr [ebp-0x29c]
0x403CE1: 8B 85 60 FD FF FF                               mov eax, dword ptr [ebp-0x2a0]
0x403CE7: 01 D0                                           add eax, edx
0x403CE9: 89 85 5C FD FF FF                               mov dword ptr [ebp-0x2a4], eax
0x403CEF: A1 00 C0 40 00                                  mov eax, dword ptr [0x40c000]
0x403CF4: 8B 95 64 FD FF FF                               mov edx, dword ptr [ebp-0x29c]
0x403CFA: 89 14 85 04 C0 40 00                            mov dword ptr [eax*4+0x40c004], edx
0x403D01: A1 00 C0 40 00                                  mov eax, dword ptr [0x40c000]
0x403D06: 8D 50 01                                        lea edx, ptr [eax+0x1]
0x403D09: 8B 85 60 FD FF FF                               mov eax, dword ptr [ebp-0x2a0]
0x403D0F: 89 04 95 04 C0 40 00                            mov dword ptr [edx*4+0x40c004], eax
0x403D16: A1 00 C0 40 00                                  mov eax, dword ptr [0x40c000]
0x403D1B: 8D 50 02                                        lea edx, ptr [eax+0x2]
0x403D1E: 8B 85 5C FD FF FF                               mov eax, dword ptr [ebp-0x2a4]
0x403D24: 89 04 95 04 C0 40 00                            mov dword ptr [edx*4+0x40c004], eax
0x403D2B: A1 00 C0 40 00                                  mov eax, dword ptr [0x40c000]
0x403D30: 83 C0 03                                        add eax, 0x3
0x403D33: A3 00 C0 40 00                                  mov dword ptr [0x40c000], eax
0x403D38: A1 04 80 40 00                                  mov eax, dword ptr [0x408004]
0x403D3D: 83 F8 04                                        cmp eax, 0x4
0x403D40: 0F 8E CF 00 00 00                               jle 0xd5
0x403D46: A1 00 C0 40 00                                  mov eax, dword ptr [0x40c000]
0x403D4B: 83 C0 03                                        add eax, 0x3
0x403D4E: 83 F8 06                                        cmp eax, 0x6
0x403D51: 0F 8F BE 00 00 00                               jnle 0xc4
0x403D57: 8B 15 34 C0 40 00                               mov edx, dword ptr [0x40c034]
0x403D5D: A1 28 C0 40 00                                  mov eax, dword ptr [0x40c028]
0x403D62: 39 C2                                           cmp edx, eax
0x403D64: 0F 85 AB 00 00 00                               jnz 0xb1
0x403D6A: 8B 15 34 C0 40 00                               mov edx, dword ptr [0x40c034]
0x403D70: A1 38 C0 40 00                                  mov eax, dword ptr [0x40c038]
0x403D75: 39 C2                                           cmp edx, eax
0x403D77: 0F 85 98 00 00 00                               jnz 0x9e
0x403D7D: A1 2C C0 40 00                                  mov eax, dword ptr [0x40c02c]
0x403D82: 89 85 58 FD FF FF                               mov dword ptr [ebp-0x2a8], eax
0x403D88: A1 34 C0 40 00                                  mov eax, dword ptr [0x40c034]
0x403D8D: 89 85 54 FD FF FF                               mov dword ptr [ebp-0x2ac], eax
0x403D93: 8B 85 54 FD FF FF                               mov eax, dword ptr [ebp-0x2ac]
0x403D99: 3B 85 58 FD FF FF                               cmp eax, dword ptr [ebp-0x2a8]
0x403D9F: 7E 74                                           jle 0x76
0x403DA1: A1 30 C0 40 00                                  mov eax, dword ptr [0x40c030]
0x403DA6: A3 28 C0 40 00                                  mov dword ptr [0x40c028], eax
0x403DAB: A1 04 80 40 00                                  mov eax, dword ptr [0x408004]
0x403DB0: 83 E8 04                                        sub eax, 0x4
0x403DB3: A3 04 80 40 00                                  mov dword ptr [0x408004], eax
0x403DB8: 8B 95 58 FD FF FF                               mov edx, dword ptr [ebp-0x2a8]
0x403DBE: 8B 85 54 FD FF FF                               mov eax, dword ptr [ebp-0x2ac]
0x403DC4: 01 D0                                           add eax, edx
0x403DC6: 89 85 50 FD FF FF                               mov dword ptr [ebp-0x2b0], eax
0x403DCC: A1 00 C0 40 00                                  mov eax, dword ptr [0x40c000]
0x403DD1: 8B 95 58 FD FF FF                               mov edx, dword ptr [ebp-0x2a8]
0x403DD7: 89 14 85 04 C0 40 00                            mov dword ptr [eax*4+0x40c004], edx
0x403DDE: A1 00 C0 40 00                                  mov eax, dword ptr [0x40c000]
0x403DE3: 8D 50 01                                        lea edx, ptr [eax+0x1]
0x403DE6: 8B 85 54 FD FF FF                               mov eax, dword ptr [ebp-0x2ac]
0x403DEC: 89 04 95 04 C0 40 00                            mov dword ptr [edx*4+0x40c004], eax
0x403DF3: A1 00 C0 40 00                                  mov eax, dword ptr [0x40c000]
0x403DF8: 8D 50 02                                        lea edx, ptr [eax+0x2]
0x403DFB: 8B 85 50 FD FF FF                               mov eax, dword ptr [ebp-0x2b0]
0x403E01: 89 04 95 04 C0 40 00                            mov dword ptr [edx*4+0x40c004], eax
0x403E08: A1 00 C0 40 00                                  mov eax, dword ptr [0x40c000]
0x403E0D: 83 C0 03                                        add eax, 0x3
0x403E10: A3 00 C0 40 00                                  mov dword ptr [0x40c000], eax
0x403E15: A1 04 80 40 00                                  mov eax, dword ptr [0x408004]
0x403E1A: 83 F8 04                                        cmp eax, 0x4
0x403E1D: 0F 8E C5 00 00 00                               jle 0xcb
0x403E23: A1 00 C0 40 00                                  mov eax, dword ptr [0x40c000]
0x403E28: 83 C0 03                                        add eax, 0x3
0x403E2B: 83 F8 06                                        cmp eax, 0x6
0x403E2E: 0F 8F B4 00 00 00                               jnle 0xba
0x403E34: 8B 15 34 C0 40 00                               mov edx, dword ptr [0x40c034]
0x403E3A: A1 30 C0 40 00                                  mov eax, dword ptr [0x40c030]
0x403E3F: 39 C2                                           cmp edx, eax
0x403E41: 0F 85 A1 00 00 00                               jnz 0xa7
0x403E47: 8B 15 34 C0 40 00                               mov edx, dword ptr [0x40c034]
0x403E4D: A1 38 C0 40 00                                  mov eax, dword ptr [0x40c038]
0x403E52: 39 C2                                           cmp edx, eax
0x403E54: 0F 85 8E 00 00 00                               jnz 0x94
0x403E5A: A1 2C C0 40 00                                  mov eax, dword ptr [0x40c02c]
0x403E5F: 89 85 4C FD FF FF                               mov dword ptr [ebp-0x2b4], eax
0x403E65: A1 34 C0 40 00                                  mov eax, dword ptr [0x40c034]
0x403E6A: 89 85 48 FD FF FF                               mov dword ptr [ebp-0x2b8], eax
0x403E70: 8B 85 48 FD FF FF                               mov eax, dword ptr [ebp-0x2b8]
0x403E76: 3B 85 4C FD FF FF                               cmp eax, dword ptr [ebp-0x2b4]
0x403E7C: 7E 6A                                           jle 0x6c
0x403E7E: A1 04 80 40 00                                  mov eax, dword ptr [0x408004]
0x403E83: 83 E8 04                                        sub eax, 0x4
0x403E86: A3 04 80 40 00                                  mov dword ptr [0x408004], eax
0x403E8B: 8B 95 4C FD FF FF                               mov edx, dword ptr [ebp-0x2b4]
0x403E91: 8B 85 48 FD FF FF                               mov eax, dword ptr [ebp-0x2b8]
0x403E97: 01 D0                                           add eax, edx
0x403E99: 89 85 44 FD FF FF                               mov dword ptr [ebp-0x2bc], eax
0x403E9F: A1 00 C0 40 00                                  mov eax, dword ptr [0x40c000]
0x403EA4: 8B 95 4C FD FF FF                               mov edx, dword ptr [ebp-0x2b4]
0x403EAA: 89 14 85 04 C0 40 00                            mov dword ptr [eax*4+0x40c004], edx
0x403EB1: A1 00 C0 40 00                                  mov eax, dword ptr [0x40c000]
0x403EB6: 8D 50 01                                        lea edx, ptr [eax+0x1]
0x403EB9: 8B 85 48 FD FF FF                               mov eax, dword ptr [ebp-0x2b8]
0x403EBF: 89 04 95 04 C0 40 00                            mov dword ptr [edx*4+0x40c004], eax
0x403EC6: A1 00 C0 40 00                                  mov eax, dword ptr [0x40c000]
0x403ECB: 8D 50 02                                        lea edx, ptr [eax+0x2]
0x403ECE: 8B 85 44 FD FF FF                               mov eax, dword ptr [ebp-0x2bc]
0x403ED4: 89 04 95 04 C0 40 00                            mov dword ptr [edx*4+0x40c004], eax
0x403EDB: A1 00 C0 40 00                                  mov eax, dword ptr [0x40c000]
0x403EE0: 83 C0 03                                        add eax, 0x3
0x403EE3: A3 00 C0 40 00                                  mov dword ptr [0x40c000], eax
0x403EE8: A1 04 80 40 00                                  mov eax, dword ptr [0x408004]
0x403EED: 83 F8 04                                        cmp eax, 0x4
0x403EF0: 0F 8E CF 00 00 00                               jle 0xd5
0x403EF6: A1 00 C0 40 00                                  mov eax, dword ptr [0x40c000]
0x403EFB: 83 C0 03                                        add eax, 0x3
0x403EFE: 83 F8 06                                        cmp eax, 0x6
0x403F01: 0F 8F BE 00 00 00                               jnle 0xc4
0x403F07: 8B 15 34 C0 40 00                               mov edx, dword ptr [0x40c034]
0x403F0D: A1 38 C0 40 00                                  mov eax, dword ptr [0x40c038]
0x403F12: 39 C2                                           cmp edx, eax
0x403F14: 0F 85 AB 00 00 00                               jnz 0xb1
0x403F1A: 8B 15 34 C0 40 00                               mov edx, dword ptr [0x40c034]
0x403F20: A1 28 C0 40 00                                  mov eax, dword ptr [0x40c028]
0x403F25: 39 C2                                           cmp edx, eax
0x403F27: 0F 85 98 00 00 00                               jnz 0x9e
0x403F2D: A1 2C C0 40 00                                  mov eax, dword ptr [0x40c02c]
0x403F32: 89 85 40 FD FF FF                               mov dword ptr [ebp-0x2c0], eax
0x403F38: A1 34 C0 40 00                                  mov eax, dword ptr [0x40c034]
0x403F3D: 89 85 3C FD FF FF                               mov dword ptr [ebp-0x2c4], eax
0x403F43: 8B 85 3C FD FF FF                               mov eax, dword ptr [ebp-0x2c4]
0x403F49: 3B 85 40 FD FF FF                               cmp eax, dword ptr [ebp-0x2c0]
0x403F4F: 7E 74                                           jle 0x76
0x403F51: A1 30 C0 40 00                                  mov eax, dword ptr [0x40c030]
0x403F56: A3 28 C0 40 00                                  mov dword ptr [0x40c028], eax
0x403F5B: A1 04 80 40 00                                  mov eax, dword ptr [0x408004]
0x403F60: 83 E8 04                                        sub eax, 0x4
0x403F63: A3 04 80 40 00                                  mov dword ptr [0x408004], eax
0x403F68: 8B 95 40 FD FF FF                               mov edx, dword ptr [ebp-0x2c0]
0x403F6E: 8B 85 3C FD FF FF                               mov eax, dword ptr [ebp-0x2c4]
0x403F74: 01 D0                                           add eax, edx
0x403F76: 89 85 38 FD FF FF                               mov dword ptr [ebp-0x2c8], eax
0x403F7C: A1 00 C0 40 00                                  mov eax, dword ptr [0x40c000]
0x403F81: 8B 95 40 FD FF FF                               mov edx, dword ptr [ebp-0x2c0]
0x403F87: 89 14 85 04 C0 40 00                            mov dword ptr [eax*4+0x40c004], edx
0x403F8E: A1 00 C0 40 00                                  mov eax, dword ptr [0x40c000]
0x403F93: 8D 50 01                                        lea edx, ptr [eax+0x1]
0x403F96: 8B 85 3C FD FF FF                               mov eax, dword ptr [ebp-0x2c4]
0x403F9C: 89 04 95 04 C0 40 00                            mov dword ptr [edx*4+0x40c004], eax
0x403FA3: A1 00 C0 40 00                                  mov eax, dword ptr [0x40c000]
0x403FA8: 8D 50 02                                        lea edx, ptr [eax+0x2]
0x403FAB: 8B 85 38 FD FF FF                               mov eax, dword ptr [ebp-0x2c8]
0x403FB1: 89 04 95 04 C0 40 00                            mov dword ptr [edx*4+0x40c004], eax
0x403FB8: A1 00 C0 40 00                                  mov eax, dword ptr [0x40c000]
0x403FBD: 83 C0 03                                        add eax, 0x3
0x403FC0: A3 00 C0 40 00                                  mov dword ptr [0x40c000], eax
0x403FC5: A1 04 80 40 00                                  mov eax, dword ptr [0x408004]
0x403FCA: 83 F8 04                                        cmp eax, 0x4
0x403FCD: 0F 8E C5 00 00 00                               jle 0xcb
0x403FD3: A1 00 C0 40 00                                  mov eax, dword ptr [0x40c000]
0x403FD8: 83 C0 03                                        add eax, 0x3
0x403FDB: 83 F8 06                                        cmp eax, 0x6
0x403FDE: 0F 8F B4 00 00 00                               jnle 0xba
0x403FE4: 8B 15 34 C0 40 00                               mov edx, dword ptr [0x40c034]
0x403FEA: A1 38 C0 40 00                                  mov eax, dword ptr [0x40c038]
0x403FEF: 39 C2                                           cmp edx, eax
0x403FF1: 0F 85 A1 00 00 00                               jnz 0xa7
0x403FF7: 8B 15 34 C0 40 00                               mov edx, dword ptr [0x40c034]
0x403FFD: A1 30 C0 40 00                                  mov eax, dword ptr [0x40c030]
0x404002: 39 C2                                           cmp edx, eax
0x404004: 0F 85 8E 00 00 00                               jnz 0x94
0x40400A: A1 2C C0 40 00                                  mov eax, dword ptr [0x40c02c]
0x40400F: 89 85 34 FD FF FF                               mov dword ptr [ebp-0x2cc], eax
0x404015: A1 34 C0 40 00                                  mov eax, dword ptr [0x40c034]
0x40401A: 89 85 30 FD FF FF                               mov dword ptr [ebp-0x2d0], eax
0x404020: 8B 85 30 FD FF FF                               mov eax, dword ptr [ebp-0x2d0]
0x404026: 3B 85 34 FD FF FF                               cmp eax, dword ptr [ebp-0x2cc]
0x40402C: 7E 6A                                           jle 0x6c
0x40402E: A1 04 80 40 00                                  mov eax, dword ptr [0x408004]
0x404033: 83 E8 04                                        sub eax, 0x4
0x404036: A3 04 80 40 00                                  mov dword ptr [0x408004], eax
0x40403B: 8B 95 34 FD FF FF                               mov edx, dword ptr [ebp-0x2cc]
0x404041: 8B 85 30 FD FF FF                               mov eax, dword ptr [ebp-0x2d0]
0x404047: 01 D0                                           add eax, edx
0x404049: 89 85 2C FD FF FF                               mov dword ptr [ebp-0x2d4], eax
0x40404F: A1 00 C0 40 00                                  mov eax, dword ptr [0x40c000]
0x404054: 8B 95 34 FD FF FF                               mov edx, dword ptr [ebp-0x2cc]
0x40405A: 89 14 85 04 C0 40 00                            mov dword ptr [eax*4+0x40c004], edx
0x404061: A1 00 C0 40 00                                  mov eax, dword ptr [0x40c000]
0x404066: 8D 50 01                                        lea edx, ptr [eax+0x1]
0x404069: 8B 85 30 FD FF FF                               mov eax, dword ptr [ebp-0x2d0]
0x40406F: 89 04 95 04 C0 40 00                            mov dword ptr [edx*4+0x40c004], eax
0x404076: A1 00 C0 40 00                                  mov eax, dword ptr [0x40c000]
0x40407B: 8D 50 02                                        lea edx, ptr [eax+0x2]
0x40407E: 8B 85 2C FD FF FF                               mov eax, dword ptr [ebp-0x2d4]
0x404084: 89 04 95 04 C0 40 00                            mov dword ptr [edx*4+0x40c004], eax
0x40408B: A1 00 C0 40 00                                  mov eax, dword ptr [0x40c000]
0x404090: 83 C0 03                                        add eax, 0x3
0x404093: A3 00 C0 40 00                                  mov dword ptr [0x40c000], eax
0x404098: A1 04 80 40 00                                  mov eax, dword ptr [0x408004]
0x40409D: 83 F8 04                                        cmp eax, 0x4
0x4040A0: 0F 8E CF 00 00 00                               jle 0xd5
0x4040A6: A1 00 C0 40 00                                  mov eax, dword ptr [0x40c000]
0x4040AB: 83 C0 03                                        add eax, 0x3
0x4040AE: 83 F8 06                                        cmp eax, 0x6
0x4040B1: 0F 8F BE 00 00 00                               jnle 0xc4
0x4040B7: 8B 15 38 C0 40 00                               mov edx, dword ptr [0x40c038]
0x4040BD: A1 28 C0 40 00                                  mov eax, dword ptr [0x40c028]
0x4040C2: 39 C2                                           cmp edx, eax
0x4040C4: 0F 85 AB 00 00 00                               jnz 0xb1
0x4040CA: 8B 15 38 C0 40 00                               mov edx, dword ptr [0x40c038]
0x4040D0: A1 30 C0 40 00                                  mov eax, dword ptr [0x40c030]
0x4040D5: 39 C2                                           cmp edx, eax
0x4040D7: 0F 85 98 00 00 00                               jnz 0x9e
0x4040DD: A1 2C C0 40 00                                  mov eax, dword ptr [0x40c02c]
0x4040E2: 89 85 28 FD FF FF                               mov dword ptr [ebp-0x2d8], eax
0x4040E8: A1 38 C0 40 00                                  mov eax, dword ptr [0x40c038]
0x4040ED: 89 85 24 FD FF FF                               mov dword ptr [ebp-0x2dc], eax
0x4040F3: 8B 85 24 FD FF FF                               mov eax, dword ptr [ebp-0x2dc]
0x4040F9: 3B 85 28 FD FF FF                               cmp eax, dword ptr [ebp-0x2d8]
0x4040FF: 7E 74                                           jle 0x76
0x404101: A1 34 C0 40 00                                  mov eax, dword ptr [0x40c034]
0x404106: A3 28 C0 40 00                                  mov dword ptr [0x40c028], eax
0x40410B: A1 04 80 40 00                                  mov eax, dword ptr [0x408004]
0x404110: 83 E8 04                                        sub eax, 0x4
0x404113: A3 04 80 40 00                                  mov dword ptr [0x408004], eax
0x404118: 8B 95 28 FD FF FF                               mov edx, dword ptr [ebp-0x2d8]
0x40411E: 8B 85 24 FD FF FF                               mov eax, dword ptr [ebp-0x2dc]
0x404124: 01 D0                                           add eax, edx
0x404126: 89 85 20 FD FF FF                               mov dword ptr [ebp-0x2e0], eax
0x40412C: A1 00 C0 40 00                                  mov eax, dword ptr [0x40c000]
0x404131: 8B 95 28 FD FF FF                               mov edx, dword ptr [ebp-0x2d8]
0x404137: 89 14 85 04 C0 40 00                            mov dword ptr [eax*4+0x40c004], edx
0x40413E: A1 00 C0 40 00                                  mov eax, dword ptr [0x40c000]
0x404143: 8D 50 01                                        lea edx, ptr [eax+0x1]
0x404146: 8B 85 24 FD FF FF                               mov eax, dword ptr [ebp-0x2dc]
0x40414C: 89 04 95 04 C0 40 00                            mov dword ptr [edx*4+0x40c004], eax
0x404153: A1 00 C0 40 00                                  mov eax, dword ptr [0x40c000]
0x404158: 8D 50 02                                        lea edx, ptr [eax+0x2]
0x40415B: 8B 85 20 FD FF FF                               mov eax, dword ptr [ebp-0x2e0]
0x404161: 89 04 95 04 C0 40 00                            mov dword ptr [edx*4+0x40c004], eax
0x404168: A1 00 C0 40 00                                  mov eax, dword ptr [0x40c000]
0x40416D: 83 C0 03                                        add eax, 0x3
0x404170: A3 00 C0 40 00                                  mov dword ptr [0x40c000], eax
0x404175: A1 04 80 40 00                                  mov eax, dword ptr [0x408004]
0x40417A: 83 F8 04                                        cmp eax, 0x4
0x40417D: 0F 8E CF 00 00 00                               jle 0xd5
0x404183: A1 00 C0 40 00                                  mov eax, dword ptr [0x40c000]
0x404188: 83 C0 03                                        add eax, 0x3
0x40418B: 83 F8 06                                        cmp eax, 0x6
0x40418E: 0F 8F BE 00 00 00                               jnle 0xc4
0x404194: 8B 15 38 C0 40 00                               mov edx, dword ptr [0x40c038]
0x40419A: A1 28 C0 40 00                                  mov eax, dword ptr [0x40c028]
0x40419F: 39 C2                                           cmp edx, eax
0x4041A1: 0F 85 AB 00 00 00                               jnz 0xb1
0x4041A7: 8B 15 38 C0 40 00                               mov edx, dword ptr [0x40c038]
0x4041AD: A1 34 C0 40 00                                  mov eax, dword ptr [0x40c034]
0x4041B2: 39 C2                                           cmp edx, eax
0x4041B4: 0F 85 98 00 00 00                               jnz 0x9e
0x4041BA: A1 2C C0 40 00                                  mov eax, dword ptr [0x40c02c]
0x4041BF: 89 85 1C FD FF FF                               mov dword ptr [ebp-0x2e4], eax
0x4041C5: A1 38 C0 40 00                                  mov eax, dword ptr [0x40c038]
0x4041CA: 89 85 18 FD FF FF                               mov dword ptr [ebp-0x2e8], eax
0x4041D0: 8B 85 18 FD FF FF                               mov eax, dword ptr [ebp-0x2e8]
0x4041D6: 3B 85 1C FD FF FF                               cmp eax, dword ptr [ebp-0x2e4]
0x4041DC: 7E 74                                           jle 0x76
0x4041DE: A1 30 C0 40 00                                  mov eax, dword ptr [0x40c030]
0x4041E3: A3 28 C0 40 00                                  mov dword ptr [0x40c028], eax
0x4041E8: A1 04 80 40 00                                  mov eax, dword ptr [0x408004]
0x4041ED: 83 E8 04                                        sub eax, 0x4
0x4041F0: A3 04 80 40 00                                  mov dword ptr [0x408004], eax
0x4041F5: 8B 95 1C FD FF FF                               mov edx, dword ptr [ebp-0x2e4]
0x4041FB: 8B 85 18 FD FF FF                               mov eax, dword ptr [ebp-0x2e8]
0x404201: 01 D0                                           add eax, edx
0x404203: 89 85 14 FD FF FF                               mov dword ptr [ebp-0x2ec], eax
0x404209: A1 00 C0 40 00                                  mov eax, dword ptr [0x40c000]
0x40420E: 8B 95 1C FD FF FF                               mov edx, dword ptr [ebp-0x2e4]
0x404214: 89 14 85 04 C0 40 00                            mov dword ptr [eax*4+0x40c004], edx
0x40421B: A1 00 C0 40 00                                  mov eax, dword ptr [0x40c000]
0x404220: 8D 50 01                                        lea edx, ptr [eax+0x1]
0x404223: 8B 85 18 FD FF FF                               mov eax, dword ptr [ebp-0x2e8]
0x404229: 89 04 95 04 C0 40 00                            mov dword ptr [edx*4+0x40c004], eax
0x404230: A1 00 C0 40 00                                  mov eax, dword ptr [0x40c000]
0x404235: 8D 50 02                                        lea edx, ptr [eax+0x2]
0x404238: 8B 85 14 FD FF FF                               mov eax, dword ptr [ebp-0x2ec]
0x40423E: 89 04 95 04 C0 40 00                            mov dword ptr [edx*4+0x40c004], eax
0x404245: A1 00 C0 40 00                                  mov eax, dword ptr [0x40c000]
0x40424A: 83 C0 03                                        add eax, 0x3
0x40424D: A3 00 C0 40 00                                  mov dword ptr [0x40c000], eax
0x404252: A1 04 80 40 00                                  mov eax, dword ptr [0x408004]
0x404257: 83 F8 04                                        cmp eax, 0x4
0x40425A: 0F 8E CF 00 00 00                               jle 0xd5
0x404260: A1 00 C0 40 00                                  mov eax, dword ptr [0x40c000]
0x404265: 83 C0 03                                        add eax, 0x3
0x404268: 83 F8 06                                        cmp eax, 0x6
0x40426B: 0F 8F BE 00 00 00                               jnle 0xc4
0x404271: 8B 15 38 C0 40 00                               mov edx, dword ptr [0x40c038]
0x404277: A1 30 C0 40 00                                  mov eax, dword ptr [0x40c030]
0x40427C: 39 C2                                           cmp edx, eax
0x40427E: 0F 85 AB 00 00 00                               jnz 0xb1
0x404284: 8B 15 38 C0 40 00                               mov edx, dword ptr [0x40c038]
0x40428A: A1 28 C0 40 00                                  mov eax, dword ptr [0x40c028]
0x40428F: 39 C2                                           cmp edx, eax
0x404291: 0F 85 98 00 00 00                               jnz 0x9e
0x404297: A1 2C C0 40 00                                  mov eax, dword ptr [0x40c02c]
0x40429C: 89 85 10 FD FF FF                               mov dword ptr [ebp-0x2f0], eax
0x4042A2: A1 38 C0 40 00                                  mov eax, dword ptr [0x40c038]
0x4042A7: 89 85 0C FD FF FF                               mov dword ptr [ebp-0x2f4], eax
0x4042AD: 8B 85 0C FD FF FF                               mov eax, dword ptr [ebp-0x2f4]
0x4042B3: 3B 85 10 FD FF FF                               cmp eax, dword ptr [ebp-0x2f0]
0x4042B9: 7E 74                                           jle 0x76
0x4042BB: A1 34 C0 40 00                                  mov eax, dword ptr [0x40c034]
0x4042C0: A3 28 C0 40 00                                  mov dword ptr [0x40c028], eax
0x4042C5: A1 04 80 40 00                                  mov eax, dword ptr [0x408004]
0x4042CA: 83 E8 04                                        sub eax, 0x4
0x4042CD: A3 04 80 40 00                                  mov dword ptr [0x408004], eax
0x4042D2: 8B 95 10 FD FF FF                               mov edx, dword ptr [ebp-0x2f0]
0x4042D8: 8B 85 0C FD FF FF                               mov eax, dword ptr [ebp-0x2f4]
0x4042DE: 01 D0                                           add eax, edx
0x4042E0: 89 85 08 FD FF FF                               mov dword ptr [ebp-0x2f8], eax
0x4042E6: A1 00 C0 40 00                                  mov eax, dword ptr [0x40c000]
0x4042EB: 8B 95 10 FD FF FF                               mov edx, dword ptr [ebp-0x2f0]
0x4042F1: 89 14 85 04 C0 40 00                            mov dword ptr [eax*4+0x40c004], edx
0x4042F8: A1 00 C0 40 00                                  mov eax, dword ptr [0x40c000]
0x4042FD: 8D 50 01                                        lea edx, ptr [eax+0x1]
0x404300: 8B 85 0C FD FF FF                               mov eax, dword ptr [ebp-0x2f4]
0x404306: 89 04 95 04 C0 40 00                            mov dword ptr [edx*4+0x40c004], eax
0x40430D: A1 00 C0 40 00                                  mov eax, dword ptr [0x40c000]
0x404312: 8D 50 02                                        lea edx, ptr [eax+0x2]
0x404315: 8B 85 08 FD FF FF                               mov eax, dword ptr [ebp-0x2f8]
0x40431B: 89 04 95 04 C0 40 00                            mov dword ptr [edx*4+0x40c004], eax
0x404322: A1 00 C0 40 00                                  mov eax, dword ptr [0x40c000]
0x404327: 83 C0 03                                        add eax, 0x3
0x40432A: A3 00 C0 40 00                                  mov dword ptr [0x40c000], eax
0x40432F: A1 04 80 40 00                                  mov eax, dword ptr [0x408004]
0x404334: 83 F8 04                                        cmp eax, 0x4
0x404337: 0F 8E C5 00 00 00                               jle 0xcb
0x40433D: A1 00 C0 40 00                                  mov eax, dword ptr [0x40c000]
0x404342: 83 C0 03                                        add eax, 0x3
0x404345: 83 F8 06                                        cmp eax, 0x6
0x404348: 0F 8F B4 00 00 00                               jnle 0xba
0x40434E: 8B 15 38 C0 40 00                               mov edx, dword ptr [0x40c038]
0x404354: A1 30 C0 40 00                                  mov eax, dword ptr [0x40c030]
0x404359: 39 C2                                           cmp edx, eax
0x40435B: 0F 85 A1 00 00 00                               jnz 0xa7
0x404361: 8B 15 38 C0 40 00                               mov edx, dword ptr [0x40c038]
0x404367: A1 34 C0 40 00                                  mov eax, dword ptr [0x40c034]
0x40436C: 39 C2                                           cmp edx, eax
0x40436E: 0F 85 8E 00 00 00                               jnz 0x94
0x404374: A1 2C C0 40 00                                  mov eax, dword ptr [0x40c02c]
0x404379: 89 85 04 FD FF FF                               mov dword ptr [ebp-0x2fc], eax
0x40437F: A1 38 C0 40 00                                  mov eax, dword ptr [0x40c038]
0x404384: 89 85 00 FD FF FF                               mov dword ptr [ebp-0x300], eax
0x40438A: 8B 85 00 FD FF FF                               mov eax, dword ptr [ebp-0x300]
0x404390: 3B 85 04 FD FF FF                               cmp eax, dword ptr [ebp-0x2fc]
0x404396: 7E 6A                                           jle 0x6c
0x404398: A1 04 80 40 00                                  mov eax, dword ptr [0x408004]
0x40439D: 83 E8 04                                        sub eax, 0x4
0x4043A0: A3 04 80 40 00                                  mov dword ptr [0x408004], eax
0x4043A5: 8B 95 04 FD FF FF                               mov edx, dword ptr [ebp-0x2fc]
0x4043AB: 8B 85 00 FD FF FF                               mov eax, dword ptr [ebp-0x300]
0x4043B1: 01 D0                                           add eax, edx
0x4043B3: 89 85 FC FC FF FF                               mov dword ptr [ebp-0x304], eax
0x4043B9: A1 00 C0 40 00                                  mov eax, dword ptr [0x40c000]
0x4043BE: 8B 95 04 FD FF FF                               mov edx, dword ptr [ebp-0x2fc]
0x4043C4: 89 14 85 04 C0 40 00                            mov dword ptr [eax*4+0x40c004], edx
0x4043CB: A1 00 C0 40 00                                  mov eax, dword ptr [0x40c000]
0x4043D0: 8D 50 01                                        lea edx, ptr [eax+0x1]
0x4043D3: 8B 85 00 FD FF FF                               mov eax, dword ptr [ebp-0x300]
0x4043D9: 89 04 95 04 C0 40 00                            mov dword ptr [edx*4+0x40c004], eax
0x4043E0: A1 00 C0 40 00                                  mov eax, dword ptr [0x40c000]
0x4043E5: 8D 50 02                                        lea edx, ptr [eax+0x2]
0x4043E8: 8B 85 FC FC FF FF                               mov eax, dword ptr [ebp-0x304]
0x4043EE: 89 04 95 04 C0 40 00                            mov dword ptr [edx*4+0x40c004], eax
0x4043F5: A1 00 C0 40 00                                  mov eax, dword ptr [0x40c000]
0x4043FA: 83 C0 03                                        add eax, 0x3
0x4043FD: A3 00 C0 40 00                                  mov dword ptr [0x40c000], eax
0x404402: A1 04 80 40 00                                  mov eax, dword ptr [0x408004]
0x404407: 83 F8 04                                        cmp eax, 0x4
0x40440A: 0F 8E CF 00 00 00                               jle 0xd5
0x404410: A1 00 C0 40 00                                  mov eax, dword ptr [0x40c000]
0x404415: 83 C0 03                                        add eax, 0x3
0x404418: 83 F8 06                                        cmp eax, 0x6
0x40441B: 0F 8F BE 00 00 00                               jnle 0xc4
0x404421: 8B 15 38 C0 40 00                               mov edx, dword ptr [0x40c038]
0x404427: A1 34 C0 40 00                                  mov eax, dword ptr [0x40c034]
0x40442C: 39 C2                                           cmp edx, eax
0x40442E: 0F 85 AB 00 00 00                               jnz 0xb1
0x404434: 8B 15 38 C0 40 00                               mov edx, dword ptr [0x40c038]
0x40443A: A1 28 C0 40 00                                  mov eax, dword ptr [0x40c028]
0x40443F: 39 C2                                           cmp edx, eax
0x404441: 0F 85 98 00 00 00                               jnz 0x9e
0x404447: A1 2C C0 40 00                                  mov eax, dword ptr [0x40c02c]
0x40444C: 89 85 F8 FC FF FF                               mov dword ptr [ebp-0x308], eax
0x404452: A1 38 C0 40 00                                  mov eax, dword ptr [0x40c038]
0x404457: 89 85 F4 FC FF FF                               mov dword ptr [ebp-0x30c], eax
0x40445D: 8B 85 F4 FC FF FF                               mov eax, dword ptr [ebp-0x30c]
0x404463: 3B 85 F8 FC FF FF                               cmp eax, dword ptr [ebp-0x308]
0x404469: 7E 74                                           jle 0x76
0x40446B: A1 30 C0 40 00                                  mov eax, dword ptr [0x40c030]
0x404470: A3 28 C0 40 00                                  mov dword ptr [0x40c028], eax
0x404475: A1 04 80 40 00                                  mov eax, dword ptr [0x408004]
0x40447A: 83 E8 04                                        sub eax, 0x4
0x40447D: A3 04 80 40 00                                  mov dword ptr [0x408004], eax
0x404482: 8B 95 F8 FC FF FF                               mov edx, dword ptr [ebp-0x308]
0x404488: 8B 85 F4 FC FF FF                               mov eax, dword ptr [ebp-0x30c]
0x40448E: 01 D0                                           add eax, edx
0x404490: 89 85 F0 FC FF FF                               mov dword ptr [ebp-0x310], eax
0x404496: A1 00 C0 40 00                                  mov eax, dword ptr [0x40c000]
0x40449B: 8B 95 F8 FC FF FF                               mov edx, dword ptr [ebp-0x308]
0x4044A1: 89 14 85 04 C0 40 00                            mov dword ptr [eax*4+0x40c004], edx
0x4044A8: A1 00 C0 40 00                                  mov eax, dword ptr [0x40c000]
0x4044AD: 8D 50 01                                        lea edx, ptr [eax+0x1]
0x4044B0: 8B 85 F4 FC FF FF                               mov eax, dword ptr [ebp-0x30c]
0x4044B6: 89 04 95 04 C0 40 00                            mov dword ptr [edx*4+0x40c004], eax
0x4044BD: A1 00 C0 40 00                                  mov eax, dword ptr [0x40c000]
0x4044C2: 8D 50 02                                        lea edx, ptr [eax+0x2]
0x4044C5: 8B 85 F0 FC FF FF                               mov eax, dword ptr [ebp-0x310]
0x4044CB: 89 04 95 04 C0 40 00                            mov dword ptr [edx*4+0x40c004], eax
0x4044D2: A1 00 C0 40 00                                  mov eax, dword ptr [0x40c000]
0x4044D7: 83 C0 03                                        add eax, 0x3
0x4044DA: A3 00 C0 40 00                                  mov dword ptr [0x40c000], eax
0x4044DF: A1 04 80 40 00                                  mov eax, dword ptr [0x408004]
0x4044E4: 83 F8 04                                        cmp eax, 0x4
0x4044E7: 0F 8E C5 00 00 00                               jle 0xcb
0x4044ED: A1 00 C0 40 00                                  mov eax, dword ptr [0x40c000]
0x4044F2: 83 C0 03                                        add eax, 0x3
0x4044F5: 83 F8 06                                        cmp eax, 0x6
0x4044F8: 0F 8F B4 00 00 00                               jnle 0xba
0x4044FE: 8B 15 38 C0 40 00                               mov edx, dword ptr [0x40c038]
0x404504: A1 34 C0 40 00                                  mov eax, dword ptr [0x40c034]
0x404509: 39 C2                                           cmp edx, eax
0x40450B: 0F 85 A1 00 00 00                               jnz 0xa7
0x404511: 8B 15 38 C0 40 00                               mov edx, dword ptr [0x40c038]
0x404517: A1 30 C0 40 00                                  mov eax, dword ptr [0x40c030]
0x40451C: 39 C2                                           cmp edx, eax
0x40451E: 0F 85 8E 00 00 00                               jnz 0x94
0x404524: A1 2C C0 40 00                                  mov eax, dword ptr [0x40c02c]
0x404529: 89 85 EC FC FF FF                               mov dword ptr [ebp-0x314], eax
0x40452F: A1 38 C0 40 00                                  mov eax, dword ptr [0x40c038]
0x404534: 89 85 E8 FC FF FF                               mov dword ptr [ebp-0x318], eax
0x40453A: 8B 85 E8 FC FF FF                               mov eax, dword ptr [ebp-0x318]
0x404540: 3B 85 EC FC FF FF                               cmp eax, dword ptr [ebp-0x314]
0x404546: 7E 6A                                           jle 0x6c
0x404548: A1 04 80 40 00                                  mov eax, dword ptr [0x408004]
0x40454D: 83 E8 04                                        sub eax, 0x4
0x404550: A3 04 80 40 00                                  mov dword ptr [0x408004], eax
0x404555: 8B 95 EC FC FF FF                               mov edx, dword ptr [ebp-0x314]
0x40455B: 8B 85 E8 FC FF FF                               mov eax, dword ptr [ebp-0x318]
0x404561: 01 D0                                           add eax, edx
0x404563: 89 85 E4 FC FF FF                               mov dword ptr [ebp-0x31c], eax
0x404569: A1 00 C0 40 00                                  mov eax, dword ptr [0x40c000]
0x40456E: 8B 95 EC FC FF FF                               mov edx, dword ptr [ebp-0x314]
0x404574: 89 14 85 04 C0 40 00                            mov dword ptr [eax*4+0x40c004], edx
0x40457B: A1 00 C0 40 00                                  mov eax, dword ptr [0x40c000]
0x404580: 8D 50 01                                        lea edx, ptr [eax+0x1]
0x404583: 8B 85 E8 FC FF FF                               mov eax, dword ptr [ebp-0x318]
0x404589: 89 04 95 04 C0 40 00                            mov dword ptr [edx*4+0x40c004], eax
0x404590: A1 00 C0 40 00                                  mov eax, dword ptr [0x40c000]
0x404595: 8D 50 02                                        lea edx, ptr [eax+0x2]
0x404598: 8B 85 E4 FC FF FF                               mov eax, dword ptr [ebp-0x31c]
0x40459E: 89 04 95 04 C0 40 00                            mov dword ptr [edx*4+0x40c004], eax
0x4045A5: A1 00 C0 40 00                                  mov eax, dword ptr [0x40c000]
0x4045AA: 83 C0 03                                        add eax, 0x3
0x4045AD: A3 00 C0 40 00                                  mov dword ptr [0x40c000], eax
0x4045B2: A1 04 80 40 00                                  mov eax, dword ptr [0x408004]
0x4045B7: 83 F8 04                                        cmp eax, 0x4
0x4045BA: 0F 8E CF 00 00 00                               jle 0xd5
0x4045C0: A1 00 C0 40 00                                  mov eax, dword ptr [0x40c000]
0x4045C5: 83 C0 03                                        add eax, 0x3
0x4045C8: 83 F8 06                                        cmp eax, 0x6
0x4045CB: 0F 8F BE 00 00 00                               jnle 0xc4
0x4045D1: 8B 15 28 C0 40 00                               mov edx, dword ptr [0x40c028]
0x4045D7: A1 2C C0 40 00                                  mov eax, dword ptr [0x40c02c]
0x4045DC: 39 C2                                           cmp edx, eax
0x4045DE: 0F 85 AB 00 00 00                               jnz 0xb1
0x4045E4: 8B 15 28 C0 40 00                               mov edx, dword ptr [0x40c028]
0x4045EA: A1 38 C0 40 00                                  mov eax, dword ptr [0x40c038]
0x4045EF: 39 C2                                           cmp edx, eax
0x4045F1: 0F 85 98 00 00 00                               jnz 0x9e
0x4045F7: A1 30 C0 40 00                                  mov eax, dword ptr [0x40c030]
0x4045FC: 89 85 E0 FC FF FF                               mov dword ptr [ebp-0x320], eax
0x404602: A1 28 C0 40 00                                  mov eax, dword ptr [0x40c028]
0x404607: 89 85 DC FC FF FF                               mov dword ptr [ebp-0x324], eax
0x40460D: 8B 85 DC FC FF FF                               mov eax, dword ptr [ebp-0x324]
0x404613: 3B 85 E0 FC FF FF                               cmp eax, dword ptr [ebp-0x320]
0x404619: 7E 74                                           jle 0x76
0x40461B: A1 34 C0 40 00                                  mov eax, dword ptr [0x40c034]
0x404620: A3 28 C0 40 00                                  mov dword ptr [0x40c028], eax
0x404625: A1 04 80 40 00                                  mov eax, dword ptr [0x408004]
0x40462A: 83 E8 04                                        sub eax, 0x4
0x40462D: A3 04 80 40 00                                  mov dword ptr [0x408004], eax
0x404632: 8B 95 E0 FC FF FF                               mov edx, dword ptr [ebp-0x320]
0x404638: 8B 85 DC FC FF FF                               mov eax, dword ptr [ebp-0x324]
0x40463E: 01 D0                                           add eax, edx
0x404640: 89 85 D8 FC FF FF                               mov dword ptr [ebp-0x328], eax
0x404646: A1 00 C0 40 00                                  mov eax, dword ptr [0x40c000]
0x40464B: 8B 95 E0 FC FF FF                               mov edx, dword ptr [ebp-0x320]
0x404651: 89 14 85 04 C0 40 00                            mov dword ptr [eax*4+0x40c004], edx
0x404658: A1 00 C0 40 00                                  mov eax, dword ptr [0x40c000]
0x40465D: 8D 50 01                                        lea edx, ptr [eax+0x1]
0x404660: 8B 85 DC FC FF FF                               mov eax, dword ptr [ebp-0x324]
0x404666: 89 04 95 04 C0 40 00                            mov dword ptr [edx*4+0x40c004], eax
0x40466D: A1 00 C0 40 00                                  mov eax, dword ptr [0x40c000]
0x404672: 8D 50 02                                        lea edx, ptr [eax+0x2]
0x404675: 8B 85 D8 FC FF FF                               mov eax, dword ptr [ebp-0x328]
0x40467B: 89 04 95 04 C0 40 00                            mov dword ptr [edx*4+0x40c004], eax
0x404682: A1 00 C0 40 00                                  mov eax, dword ptr [0x40c000]
0x404687: 83 C0 03                                        add eax, 0x3
0x40468A: A3 00 C0 40 00                                  mov dword ptr [0x40c000], eax
0x40468F: A1 04 80 40 00                                  mov eax, dword ptr [0x408004]
0x404694: 83 F8 04                                        cmp eax, 0x4
0x404697: 0F 8E CF 00 00 00                               jle 0xd5
0x40469D: A1 00 C0 40 00                                  mov eax, dword ptr [0x40c000]
0x4046A2: 83 C0 03                                        add eax, 0x3
0x4046A5: 83 F8 06                                        cmp eax, 0x6
0x4046A8: 0F 8F BE 00 00 00                               jnle 0xc4
0x4046AE: 8B 15 28 C0 40 00                               mov edx, dword ptr [0x40c028]
0x4046B4: A1 34 C0 40 00                                  mov eax, dword ptr [0x40c034]
0x4046B9: 39 C2                                           cmp edx, eax
0x4046BB: 0F 85 AB 00 00 00                               jnz 0xb1
0x4046C1: 8B 15 28 C0 40 00                               mov edx, dword ptr [0x40c028]
0x4046C7: A1 38 C0 40 00                                  mov eax, dword ptr [0x40c038]
0x4046CC: 39 C2                                           cmp edx, eax
0x4046CE: 0F 85 98 00 00 00                               jnz 0x9e
0x4046D4: A1 30 C0 40 00                                  mov eax, dword ptr [0x40c030]
0x4046D9: 89 85 D4 FC FF FF                               mov dword ptr [ebp-0x32c], eax
0x4046DF: A1 28 C0 40 00                                  mov eax, dword ptr [0x40c028]
0x4046E4: 89 85 D0 FC FF FF                               mov dword ptr [ebp-0x330], eax
0x4046EA: 8B 85 D0 FC FF FF                               mov eax, dword ptr [ebp-0x330]
0x4046F0: 3B 85 D4 FC FF FF                               cmp eax, dword ptr [ebp-0x32c]
0x4046F6: 7E 74                                           jle 0x76
0x4046F8: A1 2C C0 40 00                                  mov eax, dword ptr [0x40c02c]
0x4046FD: A3 28 C0 40 00                                  mov dword ptr [0x40c028], eax
0x404702: A1 04 80 40 00                                  mov eax, dword ptr [0x408004]
0x404707: 83 E8 04                                        sub eax, 0x4
0x40470A: A3 04 80 40 00                                  mov dword ptr [0x408004], eax
0x40470F: 8B 95 D4 FC FF FF                               mov edx, dword ptr [ebp-0x32c]
0x404715: 8B 85 D0 FC FF FF                               mov eax, dword ptr [ebp-0x330]
0x40471B: 01 D0                                           add eax, edx
0x40471D: 89 85 CC FC FF FF                               mov dword ptr [ebp-0x334], eax
0x404723: A1 00 C0 40 00                                  mov eax, dword ptr [0x40c000]
0x404728: 8B 95 D4 FC FF FF                               mov edx, dword ptr [ebp-0x32c]
0x40472E: 89 14 85 04 C0 40 00                            mov dword ptr [eax*4+0x40c004], edx
0x404735: A1 00 C0 40 00                                  mov eax, dword ptr [0x40c000]
0x40473A: 8D 50 01                                        lea edx, ptr [eax+0x1]
0x40473D: 8B 85 D0 FC FF FF                               mov eax, dword ptr [ebp-0x330]
0x404743: 89 04 95 04 C0 40 00                            mov dword ptr [edx*4+0x40c004], eax
0x40474A: A1 00 C0 40 00                                  mov eax, dword ptr [0x40c000]
0x40474F: 8D 50 02                                        lea edx, ptr [eax+0x2]
0x404752: 8B 85 CC FC FF FF                               mov eax, dword ptr [ebp-0x334]
0x404758: 89 04 95 04 C0 40 00                            mov dword ptr [edx*4+0x40c004], eax
0x40475F: A1 00 C0 40 00                                  mov eax, dword ptr [0x40c000]
0x404764: 83 C0 03                                        add eax, 0x3
0x404767: A3 00 C0 40 00                                  mov dword ptr [0x40c000], eax
0x40476C: A1 04 80 40 00                                  mov eax, dword ptr [0x408004]
0x404771: 83 F8 04                                        cmp eax, 0x4
0x404774: 0F 8E CF 00 00 00                               jle 0xd5
0x40477A: A1 00 C0 40 00                                  mov eax, dword ptr [0x40c000]
0x40477F: 83 C0 03                                        add eax, 0x3
0x404782: 83 F8 06                                        cmp eax, 0x6
0x404785: 0F 8F BE 00 00 00                               jnle 0xc4
0x40478B: 8B 15 28 C0 40 00                               mov edx, dword ptr [0x40c028]
0x404791: A1 38 C0 40 00                                  mov eax, dword ptr [0x40c038]
0x404796: 39 C2                                           cmp edx, eax
0x404798: 0F 85 AB 00 00 00                               jnz 0xb1
0x40479E: 8B 15 28 C0 40 00                               mov edx, dword ptr [0x40c028]
0x4047A4: A1 2C C0 40 00                                  mov eax, dword ptr [0x40c02c]
0x4047A9: 39 C2                                           cmp edx, eax
0x4047AB: 0F 85 98 00 00 00                               jnz 0x9e
0x4047B1: A1 30 C0 40 00                                  mov eax, dword ptr [0x40c030]
0x4047B6: 89 85 C8 FC FF FF                               mov dword ptr [ebp-0x338], eax
0x4047BC: A1 28 C0 40 00                                  mov eax, dword ptr [0x40c028]
0x4047C1: 89 85 C4 FC FF FF                               mov dword ptr [ebp-0x33c], eax
0x4047C7: 8B 85 C4 FC FF FF                               mov eax, dword ptr [ebp-0x33c]
0x4047CD: 3B 85 C8 FC FF FF                               cmp eax, dword ptr [ebp-0x338]
0x4047D3: 7E 74                                           jle 0x76
0x4047D5: A1 34 C0 40 00                                  mov eax, dword ptr [0x40c034]
0x4047DA: A3 28 C0 40 00                                  mov dword ptr [0x40c028], eax
0x4047DF: A1 04 80 40 00                                  mov eax, dword ptr [0x408004]
0x4047E4: 83 E8 04                                        sub eax, 0x4
0x4047E7: A3 04 80 40 00                                  mov dword ptr [0x408004], eax
0x4047EC: 8B 95 C8 FC FF FF                               mov edx, dword ptr [ebp-0x338]
0x4047F2: 8B 85 C4 FC FF FF                               mov eax, dword ptr [ebp-0x33c]
0x4047F8: 01 D0                                           add eax, edx
0x4047FA: 89 85 C0 FC FF FF                               mov dword ptr [ebp-0x340], eax
0x404800: A1 00 C0 40 00                                  mov eax, dword ptr [0x40c000]
0x404805: 8B 95 C8 FC FF FF                               mov edx, dword ptr [ebp-0x338]
0x40480B: 89 14 85 04 C0 40 00                            mov dword ptr [eax*4+0x40c004], edx
0x404812: A1 00 C0 40 00                                  mov eax, dword ptr [0x40c000]
0x404817: 8D 50 01                                        lea edx, ptr [eax+0x1]
0x40481A: 8B 85 C4 FC FF FF                               mov eax, dword ptr [ebp-0x33c]
0x404820: 89 04 95 04 C0 40 00                            mov dword ptr [edx*4+0x40c004], eax
0x404827: A1 00 C0 40 00                                  mov eax, dword ptr [0x40c000]
0x40482C: 8D 50 02                                        lea edx, ptr [eax+0x2]
0x40482F: 8B 85 C0 FC FF FF                               mov eax, dword ptr [ebp-0x340]
0x404835: 89 04 95 04 C0 40 00                            mov dword ptr [edx*4+0x40c004], eax
0x40483C: A1 00 C0 40 00                                  mov eax, dword ptr [0x40c000]
0x404841: 83 C0 03                                        add eax, 0x3
0x404844: A3 00 C0 40 00                                  mov dword ptr [0x40c000], eax
0x404849: A1 04 80 40 00                                  mov eax, dword ptr [0x408004]
0x40484E: 83 F8 04                                        cmp eax, 0x4
0x404851: 0F 8E CF 00 00 00                               jle 0xd5
0x404857: A1 00 C0 40 00                                  mov eax, dword ptr [0x40c000]
0x40485C: 83 C0 03                                        add eax, 0x3
0x40485F: 83 F8 06                                        cmp eax, 0x6
0x404862: 0F 8F BE 00 00 00                               jnle 0xc4
0x404868: 8B 15 28 C0 40 00                               mov edx, dword ptr [0x40c028]
0x40486E: A1 38 C0 40 00                                  mov eax, dword ptr [0x40c038]
0x404873: 39 C2                                           cmp edx, eax
0x404875: 0F 85 AB 00 00 00                               jnz 0xb1
0x40487B: 8B 15 28 C0 40 00                               mov edx, dword ptr [0x40c028]
0x404881: A1 34 C0 40 00                                  mov eax, dword ptr [0x40c034]
0x404886: 39 C2                                           cmp edx, eax
0x404888: 0F 85 98 00 00 00                               jnz 0x9e
0x40488E: A1 30 C0 40 00                                  mov eax, dword ptr [0x40c030]
0x404893: 89 85 BC FC FF FF                               mov dword ptr [ebp-0x344], eax
0x404899: A1 28 C0 40 00                                  mov eax, dword ptr [0x40c028]
0x40489E: 89 85 B8 FC FF FF                               mov dword ptr [ebp-0x348], eax
0x4048A4: 8B 85 B8 FC FF FF                               mov eax, dword ptr [ebp-0x348]
0x4048AA: 3B 85 BC FC FF FF                               cmp eax, dword ptr [ebp-0x344]
0x4048B0: 7E 74                                           jle 0x76
0x4048B2: A1 2C C0 40 00                                  mov eax, dword ptr [0x40c02c]
0x4048B7: A3 28 C0 40 00                                  mov dword ptr [0x40c028], eax
0x4048BC: A1 04 80 40 00                                  mov eax, dword ptr [0x408004]
0x4048C1: 83 E8 04                                        sub eax, 0x4
0x4048C4: A3 04 80 40 00                                  mov dword ptr [0x408004], eax
0x4048C9: 8B 95 BC FC FF FF                               mov edx, dword ptr [ebp-0x344]
0x4048CF: 8B 85 B8 FC FF FF                               mov eax, dword ptr [ebp-0x348]
0x4048D5: 01 D0                                           add eax, edx
0x4048D7: 89 85 B4 FC FF FF                               mov dword ptr [ebp-0x34c], eax
0x4048DD: A1 00 C0 40 00                                  mov eax, dword ptr [0x40c000]
0x4048E2: 8B 95 BC FC FF FF                               mov edx, dword ptr [ebp-0x344]
0x4048E8: 89 14 85 04 C0 40 00                            mov dword ptr [eax*4+0x40c004], edx
0x4048EF: A1 00 C0 40 00                                  mov eax, dword ptr [0x40c000]
0x4048F4: 8D 50 01                                        lea edx, ptr [eax+0x1]
0x4048F7: 8B 85 B8 FC FF FF                               mov eax, dword ptr [ebp-0x348]
0x4048FD: 89 04 95 04 C0 40 00                            mov dword ptr [edx*4+0x40c004], eax
0x404904: A1 00 C0 40 00                                  mov eax, dword ptr [0x40c000]
0x404909: 8D 50 02                                        lea edx, ptr [eax+0x2]
0x40490C: 8B 85 B4 FC FF FF                               mov eax, dword ptr [ebp-0x34c]
0x404912: 89 04 95 04 C0 40 00                            mov dword ptr [edx*4+0x40c004], eax
0x404919: A1 00 C0 40 00                                  mov eax, dword ptr [0x40c000]
0x40491E: 83 C0 03                                        add eax, 0x3
0x404921: A3 00 C0 40 00                                  mov dword ptr [0x40c000], eax
0x404926: A1 04 80 40 00                                  mov eax, dword ptr [0x408004]
0x40492B: 83 F8 04                                        cmp eax, 0x4
0x40492E: 0F 8E CF 00 00 00                               jle 0xd5
0x404934: A1 00 C0 40 00                                  mov eax, dword ptr [0x40c000]
0x404939: 83 C0 03                                        add eax, 0x3
0x40493C: 83 F8 06                                        cmp eax, 0x6
0x40493F: 0F 8F BE 00 00 00                               jnle 0xc4
0x404945: 8B 15 2C C0 40 00                               mov edx, dword ptr [0x40c02c]
0x40494B: A1 28 C0 40 00                                  mov eax, dword ptr [0x40c028]
0x404950: 39 C2                                           cmp edx, eax
0x404952: 0F 85 AB 00 00 00                               jnz 0xb1
0x404958: 8B 15 2C C0 40 00                               mov edx, dword ptr [0x40c02c]
0x40495E: A1 38 C0 40 00                                  mov eax, dword ptr [0x40c038]
0x404963: 39 C2                                           cmp edx, eax
0x404965: 0F 85 98 00 00 00                               jnz 0x9e
0x40496B: A1 30 C0 40 00                                  mov eax, dword ptr [0x40c030]
0x404970: 89 85 B0 FC FF FF                               mov dword ptr [ebp-0x350], eax
0x404976: A1 2C C0 40 00                                  mov eax, dword ptr [0x40c02c]
0x40497B: 89 85 AC FC FF FF                               mov dword ptr [ebp-0x354], eax
0x404981: 8B 85 AC FC FF FF                               mov eax, dword ptr [ebp-0x354]
0x404987: 3B 85 B0 FC FF FF                               cmp eax, dword ptr [ebp-0x350]
0x40498D: 7E 74                                           jle 0x76
0x40498F: A1 34 C0 40 00                                  mov eax, dword ptr [0x40c034]
0x404994: A3 28 C0 40 00                                  mov dword ptr [0x40c028], eax
0x404999: A1 04 80 40 00                                  mov eax, dword ptr [0x408004]
0x40499E: 83 E8 04                                        sub eax, 0x4
0x4049A1: A3 04 80 40 00                                  mov dword ptr [0x408004], eax
0x4049A6: 8B 95 B0 FC FF FF                               mov edx, dword ptr [ebp-0x350]
0x4049AC: 8B 85 AC FC FF FF                               mov eax, dword ptr [ebp-0x354]
0x4049B2: 01 D0                                           add eax, edx
0x4049B4: 89 85 A8 FC FF FF                               mov dword ptr [ebp-0x358], eax
0x4049BA: A1 00 C0 40 00                                  mov eax, dword ptr [0x40c000]
0x4049BF: 8B 95 B0 FC FF FF                               mov edx, dword ptr [ebp-0x350]
0x4049C5: 89 14 85 04 C0 40 00                            mov dword ptr [eax*4+0x40c004], edx
0x4049CC: A1 00 C0 40 00                                  mov eax, dword ptr [0x40c000]
0x4049D1: 8D 50 01                                        lea edx, ptr [eax+0x1]
0x4049D4: 8B 85 AC FC FF FF                               mov eax, dword ptr [ebp-0x354]
0x4049DA: 89 04 95 04 C0 40 00                            mov dword ptr [edx*4+0x40c004], eax
0x4049E1: A1 00 C0 40 00                                  mov eax, dword ptr [0x40c000]
0x4049E6: 8D 50 02                                        lea edx, ptr [eax+0x2]
0x4049E9: 8B 85 A8 FC FF FF                               mov eax, dword ptr [ebp-0x358]
0x4049EF: 89 04 95 04 C0 40 00                            mov dword ptr [edx*4+0x40c004], eax
0x4049F6: A1 00 C0 40 00                                  mov eax, dword ptr [0x40c000]
0x4049FB: 83 C0 03                                        add eax, 0x3
0x4049FE: A3 00 C0 40 00                                  mov dword ptr [0x40c000], eax
0x404A03: A1 04 80 40 00                                  mov eax, dword ptr [0x408004]
0x404A08: 83 F8 04                                        cmp eax, 0x4
0x404A0B: 0F 8E C5 00 00 00                               jle 0xcb
0x404A11: A1 00 C0 40 00                                  mov eax, dword ptr [0x40c000]
0x404A16: 83 C0 03                                        add eax, 0x3
0x404A19: 83 F8 06                                        cmp eax, 0x6
0x404A1C: 0F 8F B4 00 00 00                               jnle 0xba
0x404A22: 8B 15 2C C0 40 00                               mov edx, dword ptr [0x40c02c]
0x404A28: A1 34 C0 40 00                                  mov eax, dword ptr [0x40c034]
0x404A2D: 39 C2                                           cmp edx, eax
0x404A2F: 0F 85 A1 00 00 00                               jnz 0xa7
0x404A35: 8B 15 2C C0 40 00                               mov edx, dword ptr [0x40c02c]
0x404A3B: A1 38 C0 40 00                                  mov eax, dword ptr [0x40c038]
0x404A40: 39 C2                                           cmp edx, eax
0x404A42: 0F 85 8E 00 00 00                               jnz 0x94
0x404A48: A1 30 C0 40 00                                  mov eax, dword ptr [0x40c030]
0x404A4D: 89 85 A4 FC FF FF                               mov dword ptr [ebp-0x35c], eax
0x404A53: A1 2C C0 40 00                                  mov eax, dword ptr [0x40c02c]
0x404A58: 89 85 A0 FC FF FF                               mov dword ptr [ebp-0x360], eax
0x404A5E: 8B 85 A0 FC FF FF                               mov eax, dword ptr [ebp-0x360]
0x404A64: 3B 85 A4 FC FF FF                               cmp eax, dword ptr [ebp-0x35c]
0x404A6A: 7E 6A                                           jle 0x6c
0x404A6C: A1 04 80 40 00                                  mov eax, dword ptr [0x408004]
0x404A71: 83 E8 04                                        sub eax, 0x4
0x404A74: A3 04 80 40 00                                  mov dword ptr [0x408004], eax
0x404A79: 8B 95 A4 FC FF FF                               mov edx, dword ptr [ebp-0x35c]
0x404A7F: 8B 85 A0 FC FF FF                               mov eax, dword ptr [ebp-0x360]
0x404A85: 01 D0                                           add eax, edx
0x404A87: 89 85 9C FC FF FF                               mov dword ptr [ebp-0x364], eax
0x404A8D: A1 00 C0 40 00                                  mov eax, dword ptr [0x40c000]
0x404A92: 8B 95 A4 FC FF FF                               mov edx, dword ptr [ebp-0x35c]
0x404A98: 89 14 85 04 C0 40 00                            mov dword ptr [eax*4+0x40c004], edx
0x404A9F: A1 00 C0 40 00                                  mov eax, dword ptr [0x40c000]
0x404AA4: 8D 50 01                                        lea edx, ptr [eax+0x1]
0x404AA7: 8B 85 A0 FC FF FF                               mov eax, dword ptr [ebp-0x360]
0x404AAD: 89 04 95 04 C0 40 00                            mov dword ptr [edx*4+0x40c004], eax
0x404AB4: A1 00 C0 40 00                                  mov eax, dword ptr [0x40c000]
0x404AB9: 8D 50 02                                        lea edx, ptr [eax+0x2]
0x404ABC: 8B 85 9C FC FF FF                               mov eax, dword ptr [ebp-0x364]
0x404AC2: 89 04 95 04 C0 40 00                            mov dword ptr [edx*4+0x40c004], eax
0x404AC9: A1 00 C0 40 00                                  mov eax, dword ptr [0x40c000]
0x404ACE: 83 C0 03                                        add eax, 0x3
0x404AD1: A3 00 C0 40 00                                  mov dword ptr [0x40c000], eax
0x404AD6: A1 04 80 40 00                                  mov eax, dword ptr [0x408004]
0x404ADB: 83 F8 04                                        cmp eax, 0x4
0x404ADE: 0F 8E CF 00 00 00                               jle 0xd5
0x404AE4: A1 00 C0 40 00                                  mov eax, dword ptr [0x40c000]
0x404AE9: 83 C0 03                                        add eax, 0x3
0x404AEC: 83 F8 06                                        cmp eax, 0x6
0x404AEF: 0F 8F BE 00 00 00                               jnle 0xc4
0x404AF5: 8B 15 2C C0 40 00                               mov edx, dword ptr [0x40c02c]
0x404AFB: A1 38 C0 40 00                                  mov eax, dword ptr [0x40c038]
0x404B00: 39 C2                                           cmp edx, eax
0x404B02: 0F 85 AB 00 00 00                               jnz 0xb1
0x404B08: 8B 15 2C C0 40 00                               mov edx, dword ptr [0x40c02c]
0x404B0E: A1 28 C0 40 00                                  mov eax, dword ptr [0x40c028]
0x404B13: 39 C2                                           cmp edx, eax
0x404B15: 0F 85 98 00 00 00                               jnz 0x9e
0x404B1B: A1 30 C0 40 00                                  mov eax, dword ptr [0x40c030]
0x404B20: 89 85 98 FC FF FF                               mov dword ptr [ebp-0x368], eax
0x404B26: A1 2C C0 40 00                                  mov eax, dword ptr [0x40c02c]
0x404B2B: 89 85 94 FC FF FF                               mov dword ptr [ebp-0x36c], eax
0x404B31: 8B 85 94 FC FF FF                               mov eax, dword ptr [ebp-0x36c]
0x404B37: 3B 85 98 FC FF FF                               cmp eax, dword ptr [ebp-0x368]
0x404B3D: 7E 74                                           jle 0x76
0x404B3F: A1 34 C0 40 00                                  mov eax, dword ptr [0x40c034]
0x404B44: A3 28 C0 40 00                                  mov dword ptr [0x40c028], eax
0x404B49: A1 04 80 40 00                                  mov eax, dword ptr [0x408004]
0x404B4E: 83 E8 04                                        sub eax, 0x4
0x404B51: A3 04 80 40 00                                  mov dword ptr [0x408004], eax
0x404B56: 8B 95 98 FC FF FF                               mov edx, dword ptr [ebp-0x368]
0x404B5C: 8B 85 94 FC FF FF                               mov eax, dword ptr [ebp-0x36c]
0x404B62: 01 D0                                           add eax, edx
0x404B64: 89 85 90 FC FF FF                               mov dword ptr [ebp-0x370], eax
0x404B6A: A1 00 C0 40 00                                  mov eax, dword ptr [0x40c000]
0x404B6F: 8B 95 98 FC FF FF                               mov edx, dword ptr [ebp-0x368]
0x404B75: 89 14 85 04 C0 40 00                            mov dword ptr [eax*4+0x40c004], edx
0x404B7C: A1 00 C0 40 00                                  mov eax, dword ptr [0x40c000]
0x404B81: 8D 50 01                                        lea edx, ptr [eax+0x1]
0x404B84: 8B 85 94 FC FF FF                               mov eax, dword ptr [ebp-0x36c]
0x404B8A: 89 04 95 04 C0 40 00                            mov dword ptr [edx*4+0x40c004], eax
0x404B91: A1 00 C0 40 00                                  mov eax, dword ptr [0x40c000]
0x404B96: 8D 50 02                                        lea edx, ptr [eax+0x2]
0x404B99: 8B 85 90 FC FF FF                               mov eax, dword ptr [ebp-0x370]
0x404B9F: 89 04 95 04 C0 40 00                            mov dword ptr [edx*4+0x40c004], eax
0x404BA6: A1 00 C0 40 00                                  mov eax, dword ptr [0x40c000]
0x404BAB: 83 C0 03                                        add eax, 0x3
0x404BAE: A3 00 C0 40 00                                  mov dword ptr [0x40c000], eax
0x404BB3: A1 04 80 40 00                                  mov eax, dword ptr [0x408004]
0x404BB8: 83 F8 04                                        cmp eax, 0x4
0x404BBB: 0F 8E C5 00 00 00                               jle 0xcb
0x404BC1: A1 00 C0 40 00                                  mov eax, dword ptr [0x40c000]
0x404BC6: 83 C0 03                                        add eax, 0x3
0x404BC9: 83 F8 06                                        cmp eax, 0x6
0x404BCC: 0F 8F B4 00 00 00                               jnle 0xba
0x404BD2: 8B 15 2C C0 40 00                               mov edx, dword ptr [0x40c02c]
0x404BD8: A1 38 C0 40 00                                  mov eax, dword ptr [0x40c038]
0x404BDD: 39 C2                                           cmp edx, eax
0x404BDF: 0F 85 A1 00 00 00                               jnz 0xa7
0x404BE5: 8B 15 2C C0 40 00                               mov edx, dword ptr [0x40c02c]
0x404BEB: A1 34 C0 40 00                                  mov eax, dword ptr [0x40c034]
0x404BF0: 39 C2                                           cmp edx, eax
0x404BF2: 0F 85 8E 00 00 00                               jnz 0x94
0x404BF8: A1 30 C0 40 00                                  mov eax, dword ptr [0x40c030]
0x404BFD: 89 85 8C FC FF FF                               mov dword ptr [ebp-0x374], eax
0x404C03: A1 2C C0 40 00                                  mov eax, dword ptr [0x40c02c]
0x404C08: 89 85 88 FC FF FF                               mov dword ptr [ebp-0x378], eax
0x404C0E: 8B 85 88 FC FF FF                               mov eax, dword ptr [ebp-0x378]
0x404C14: 3B 85 8C FC FF FF                               cmp eax, dword ptr [ebp-0x374]
0x404C1A: 7E 6A                                           jle 0x6c
0x404C1C: A1 04 80 40 00                                  mov eax, dword ptr [0x408004]
0x404C21: 83 E8 04                                        sub eax, 0x4
0x404C24: A3 04 80 40 00                                  mov dword ptr [0x408004], eax
0x404C29: 8B 95 8C FC FF FF                               mov edx, dword ptr [ebp-0x374]
0x404C2F: 8B 85 88 FC FF FF                               mov eax, dword ptr [ebp-0x378]
0x404C35: 01 D0                                           add eax, edx
0x404C37: 89 85 84 FC FF FF                               mov dword ptr [ebp-0x37c], eax
0x404C3D: A1 00 C0 40 00                                  mov eax, dword ptr [0x40c000]
0x404C42: 8B 95 8C FC FF FF                               mov edx, dword ptr [ebp-0x374]
0x404C48: 89 14 85 04 C0 40 00                            mov dword ptr [eax*4+0x40c004], edx
0x404C4F: A1 00 C0 40 00                                  mov eax, dword ptr [0x40c000]
0x404C54: 8D 50 01                                        lea edx, ptr [eax+0x1]
0x404C57: 8B 85 88 FC FF FF                               mov eax, dword ptr [ebp-0x378]
0x404C5D: 89 04 95 04 C0 40 00                            mov dword ptr [edx*4+0x40c004], eax
0x404C64: A1 00 C0 40 00                                  mov eax, dword ptr [0x40c000]
0x404C69: 8D 50 02                                        lea edx, ptr [eax+0x2]
0x404C6C: 8B 85 84 FC FF FF                               mov eax, dword ptr [ebp-0x37c]
0x404C72: 89 04 95 04 C0 40 00                            mov dword ptr [edx*4+0x40c004], eax
0x404C79: A1 00 C0 40 00                                  mov eax, dword ptr [0x40c000]
0x404C7E: 83 C0 03                                        add eax, 0x3
0x404C81: A3 00 C0 40 00                                  mov dword ptr [0x40c000], eax
0x404C86: A1 04 80 40 00                                  mov eax, dword ptr [0x408004]
0x404C8B: 83 F8 04                                        cmp eax, 0x4
0x404C8E: 0F 8E CF 00 00 00                               jle 0xd5
0x404C94: A1 00 C0 40 00                                  mov eax, dword ptr [0x40c000]
0x404C99: 83 C0 03                                        add eax, 0x3
0x404C9C: 83 F8 06                                        cmp eax, 0x6
0x404C9F: 0F 8F BE 00 00 00                               jnle 0xc4
0x404CA5: 8B 15 34 C0 40 00                               mov edx, dword ptr [0x40c034]
0x404CAB: A1 28 C0 40 00                                  mov eax, dword ptr [0x40c028]
0x404CB0: 39 C2                                           cmp edx, eax
0x404CB2: 0F 85 AB 00 00 00                               jnz 0xb1
0x404CB8: 8B 15 34 C0 40 00                               mov edx, dword ptr [0x40c034]
0x404CBE: A1 38 C0 40 00                                  mov eax, dword ptr [0x40c038]
0x404CC3: 39 C2                                           cmp edx, eax
0x404CC5: 0F 85 98 00 00 00                               jnz 0x9e
0x404CCB: A1 30 C0 40 00                                  mov eax, dword ptr [0x40c030]
0x404CD0: 89 85 80 FC FF FF                               mov dword ptr [ebp-0x380], eax
0x404CD6: A1 34 C0 40 00                                  mov eax, dword ptr [0x40c034]
0x404CDB: 89 85 7C FC FF FF                               mov dword ptr [ebp-0x384], eax
0x404CE1: 8B 85 7C FC FF FF                               mov eax, dword ptr [ebp-0x384]
0x404CE7: 3B 85 80 FC FF FF                               cmp eax, dword ptr [ebp-0x380]
0x404CED: 7E 74                                           jle 0x76
0x404CEF: A1 2C C0 40 00                                  mov eax, dword ptr [0x40c02c]
0x404CF4: A3 28 C0 40 00                                  mov dword ptr [0x40c028], eax
0x404CF9: A1 04 80 40 00                                  mov eax, dword ptr [0x408004]
0x404CFE: 83 E8 04                                        sub eax, 0x4
0x404D01: A3 04 80 40 00                                  mov dword ptr [0x408004], eax
0x404D06: 8B 95 80 FC FF FF                               mov edx, dword ptr [ebp-0x380]
0x404D0C: 8B 85 7C FC FF FF                               mov eax, dword ptr [ebp-0x384]
0x404D12: 01 D0                                           add eax, edx
0x404D14: 89 85 78 FC FF FF                               mov dword ptr [ebp-0x388], eax
0x404D1A: A1 00 C0 40 00                                  mov eax, dword ptr [0x40c000]
0x404D1F: 8B 95 80 FC FF FF                               mov edx, dword ptr [ebp-0x380]
0x404D25: 89 14 85 04 C0 40 00                            mov dword ptr [eax*4+0x40c004], edx
0x404D2C: A1 00 C0 40 00                                  mov eax, dword ptr [0x40c000]
0x404D31: 8D 50 01                                        lea edx, ptr [eax+0x1]
0x404D34: 8B 85 7C FC FF FF                               mov eax, dword ptr [ebp-0x384]
0x404D3A: 89 04 95 04 C0 40 00                            mov dword ptr [edx*4+0x40c004], eax
0x404D41: A1 00 C0 40 00                                  mov eax, dword ptr [0x40c000]
0x404D46: 8D 50 02                                        lea edx, ptr [eax+0x2]
0x404D49: 8B 85 78 FC FF FF                               mov eax, dword ptr [ebp-0x388]
0x404D4F: 89 04 95 04 C0 40 00                            mov dword ptr [edx*4+0x40c004], eax
0x404D56: A1 00 C0 40 00                                  mov eax, dword ptr [0x40c000]
0x404D5B: 83 C0 03                                        add eax, 0x3
0x404D5E: A3 00 C0 40 00                                  mov dword ptr [0x40c000], eax
0x404D63: A1 04 80 40 00                                  mov eax, dword ptr [0x408004]
0x404D68: 83 F8 04                                        cmp eax, 0x4
0x404D6B: 0F 8E C5 00 00 00                               jle 0xcb
0x404D71: A1 00 C0 40 00                                  mov eax, dword ptr [0x40c000]
0x404D76: 83 C0 03                                        add eax, 0x3
0x404D79: 83 F8 06                                        cmp eax, 0x6
0x404D7C: 0F 8F B4 00 00 00                               jnle 0xba
0x404D82: 8B 15 34 C0 40 00                               mov edx, dword ptr [0x40c034]
0x404D88: A1 2C C0 40 00                                  mov eax, dword ptr [0x40c02c]
0x404D8D: 39 C2                                           cmp edx, eax
0x404D8F: 0F 85 A1 00 00 00                               jnz 0xa7
0x404D95: 8B 15 34 C0 40 00                               mov edx, dword ptr [0x40c034]
0x404D9B: A1 38 C0 40 00                                  mov eax, dword ptr [0x40c038]
0x404DA0: 39 C2                                           cmp edx, eax
0x404DA2: 0F 85 8E 00 00 00                               jnz 0x94
0x404DA8: A1 30 C0 40 00                                  mov eax, dword ptr [0x40c030]
0x404DAD: 89 85 74 FC FF FF                               mov dword ptr [ebp-0x38c], eax
0x404DB3: A1 34 C0 40 00                                  mov eax, dword ptr [0x40c034]
0x404DB8: 89 85 70 FC FF FF                               mov dword ptr [ebp-0x390], eax
0x404DBE: 8B 85 70 FC FF FF                               mov eax, dword ptr [ebp-0x390]
0x404DC4: 3B 85 74 FC FF FF                               cmp eax, dword ptr [ebp-0x38c]
0x404DCA: 7E 6A                                           jle 0x6c
0x404DCC: A1 04 80 40 00                                  mov eax, dword ptr [0x408004]
0x404DD1: 83 E8 04                                        sub eax, 0x4
0x404DD4: A3 04 80 40 00                                  mov dword ptr [0x408004], eax
0x404DD9: 8B 95 74 FC FF FF                               mov edx, dword ptr [ebp-0x38c]
0x404DDF: 8B 85 70 FC FF FF                               mov eax, dword ptr [ebp-0x390]
0x404DE5: 01 D0                                           add eax, edx
0x404DE7: 89 85 6C FC FF FF                               mov dword ptr [ebp-0x394], eax
0x404DED: A1 00 C0 40 00                                  mov eax, dword ptr [0x40c000]
0x404DF2: 8B 95 74 FC FF FF                               mov edx, dword ptr [ebp-0x38c]
0x404DF8: 89 14 85 04 C0 40 00                            mov dword ptr [eax*4+0x40c004], edx
0x404DFF: A1 00 C0 40 00                                  mov eax, dword ptr [0x40c000]
0x404E04: 8D 50 01                                        lea edx, ptr [eax+0x1]
0x404E07: 8B 85 70 FC FF FF                               mov eax, dword ptr [ebp-0x390]
0x404E0D: 89 04 95 04 C0 40 00                            mov dword ptr [edx*4+0x40c004], eax
0x404E14: A1 00 C0 40 00                                  mov eax, dword ptr [0x40c000]
0x404E19: 8D 50 02                                        lea edx, ptr [eax+0x2]
0x404E1C: 8B 85 6C FC FF FF                               mov eax, dword ptr [ebp-0x394]
0x404E22: 89 04 95 04 C0 40 00                            mov dword ptr [edx*4+0x40c004], eax
0x404E29: A1 00 C0 40 00                                  mov eax, dword ptr [0x40c000]
0x404E2E: 83 C0 03                                        add eax, 0x3
0x404E31: A3 00 C0 40 00                                  mov dword ptr [0x40c000], eax
0x404E36: A1 04 80 40 00                                  mov eax, dword ptr [0x408004]
0x404E3B: 83 F8 04                                        cmp eax, 0x4
0x404E3E: 0F 8E CF 00 00 00                               jle 0xd5
0x404E44: A1 00 C0 40 00                                  mov eax, dword ptr [0x40c000]
0x404E49: 83 C0 03                                        add eax, 0x3
0x404E4C: 83 F8 06                                        cmp eax, 0x6
0x404E4F: 0F 8F BE 00 00 00                               jnle 0xc4
0x404E55: 8B 15 34 C0 40 00                               mov edx, dword ptr [0x40c034]
0x404E5B: A1 38 C0 40 00                                  mov eax, dword ptr [0x40c038]
0x404E60: 39 C2                                           cmp edx, eax
0x404E62: 0F 85 AB 00 00 00                               jnz 0xb1
0x404E68: 8B 15 34 C0 40 00                               mov edx, dword ptr [0x40c034]
0x404E6E: A1 28 C0 40 00                                  mov eax, dword ptr [0x40c028]
0x404E73: 39 C2                                           cmp edx, eax
0x404E75: 0F 85 98 00 00 00                               jnz 0x9e
0x404E7B: A1 30 C0 40 00                                  mov eax, dword ptr [0x40c030]
0x404E80: 89 85 68 FC FF FF                               mov dword ptr [ebp-0x398], eax
0x404E86: A1 34 C0 40 00                                  mov eax, dword ptr [0x40c034]
0x404E8B: 89 85 64 FC FF FF                               mov dword ptr [ebp-0x39c], eax
0x404E91: 8B 85 64 FC FF FF                               mov eax, dword ptr [ebp-0x39c]
0x404E97: 3B 85 68 FC FF FF                               cmp eax, dword ptr [ebp-0x398]
0x404E9D: 7E 74                                           jle 0x76
0x404E9F: A1 2C C0 40 00                                  mov eax, dword ptr [0x40c02c]
0x404EA4: A3 28 C0 40 00                                  mov dword ptr [0x40c028], eax
0x404EA9: A1 04 80 40 00                                  mov eax, dword ptr [0x408004]
0x404EAE: 83 E8 04                                        sub eax, 0x4
0x404EB1: A3 04 80 40 00                                  mov dword ptr [0x408004], eax
0x404EB6: 8B 95 68 FC FF FF                               mov edx, dword ptr [ebp-0x398]
0x404EBC: 8B 85 64 FC FF FF                               mov eax, dword ptr [ebp-0x39c]
0x404EC2: 01 D0                                           add eax, edx
0x404EC4: 89 85 60 FC FF FF                               mov dword ptr [ebp-0x3a0], eax
0x404ECA: A1 00 C0 40 00                                  mov eax, dword ptr [0x40c000]
0x404ECF: 8B 95 68 FC FF FF                               mov edx, dword ptr [ebp-0x398]
0x404ED5: 89 14 85 04 C0 40 00                            mov dword ptr [eax*4+0x40c004], edx
0x404EDC: A1 00 C0 40 00                                  mov eax, dword ptr [0x40c000]
0x404EE1: 8D 50 01                                        lea edx, ptr [eax+0x1]
0x404EE4: 8B 85 64 FC FF FF                               mov eax, dword ptr [ebp-0x39c]
0x404EEA: 89 04 95 04 C0 40 00                            mov dword ptr [edx*4+0x40c004], eax
0x404EF1: A1 00 C0 40 00                                  mov eax, dword ptr [0x40c000]
0x404EF6: 8D 50 02                                        lea edx, ptr [eax+0x2]
0x404EF9: 8B 85 60 FC FF FF                               mov eax, dword ptr [ebp-0x3a0]
0x404EFF: 89 04 95 04 C0 40 00                            mov dword ptr [edx*4+0x40c004], eax
0x404F06: A1 00 C0 40 00                                  mov eax, dword ptr [0x40c000]
0x404F0B: 83 C0 03                                        add eax, 0x3
0x404F0E: A3 00 C0 40 00                                  mov dword ptr [0x40c000], eax
0x404F13: A1 04 80 40 00                                  mov eax, dword ptr [0x408004]
0x404F18: 83 F8 04                                        cmp eax, 0x4
0x404F1B: 0F 8E C5 00 00 00                               jle 0xcb
0x404F21: A1 00 C0 40 00                                  mov eax, dword ptr [0x40c000]
0x404F26: 83 C0 03                                        add eax, 0x3
0x404F29: 83 F8 06                                        cmp eax, 0x6
0x404F2C: 0F 8F B4 00 00 00                               jnle 0xba
0x404F32: 8B 15 34 C0 40 00                               mov edx, dword ptr [0x40c034]
0x404F38: A1 38 C0 40 00                                  mov eax, dword ptr [0x40c038]
0x404F3D: 39 C2                                           cmp edx, eax
0x404F3F: 0F 85 A1 00 00 00                               jnz 0xa7
0x404F45: 8B 15 34 C0 40 00                               mov edx, dword ptr [0x40c034]
0x404F4B: A1 2C C0 40 00                                  mov eax, dword ptr [0x40c02c]
0x404F50: 39 C2                                           cmp edx, eax
0x404F52: 0F 85 8E 00 00 00                               jnz 0x94
0x404F58: A1 30 C0 40 00                                  mov eax, dword ptr [0x40c030]
0x404F5D: 89 85 5C FC FF FF                               mov dword ptr [ebp-0x3a4], eax
0x404F63: A1 34 C0 40 00                                  mov eax, dword ptr [0x40c034]
0x404F68: 89 85 58 FC FF FF                               mov dword ptr [ebp-0x3a8], eax
0x404F6E: 8B 85 58 FC FF FF                               mov eax, dword ptr [ebp-0x3a8]
0x404F74: 3B 85 5C FC FF FF                               cmp eax, dword ptr [ebp-0x3a4]
0x404F7A: 7E 6A                                           jle 0x6c
0x404F7C: A1 04 80 40 00                                  mov eax, dword ptr [0x408004]
0x404F81: 83 E8 04                                        sub eax, 0x4
0x404F84: A3 04 80 40 00                                  mov dword ptr [0x408004], eax
0x404F89: 8B 95 5C FC FF FF                               mov edx, dword ptr [ebp-0x3a4]
0x404F8F: 8B 85 58 FC FF FF                               mov eax, dword ptr [ebp-0x3a8]
0x404F95: 01 D0                                           add eax, edx
0x404F97: 89 85 54 FC FF FF                               mov dword ptr [ebp-0x3ac], eax
0x404F9D: A1 00 C0 40 00                                  mov eax, dword ptr [0x40c000]
0x404FA2: 8B 95 5C FC FF FF                               mov edx, dword ptr [ebp-0x3a4]
0x404FA8: 89 14 85 04 C0 40 00                            mov dword ptr [eax*4+0x40c004], edx
0x404FAF: A1 00 C0 40 00                                  mov eax, dword ptr [0x40c000]
0x404FB4: 8D 50 01                                        lea edx, ptr [eax+0x1]
0x404FB7: 8B 85 58 FC FF FF                               mov eax, dword ptr [ebp-0x3a8]
0x404FBD: 89 04 95 04 C0 40 00                            mov dword ptr [edx*4+0x40c004], eax
0x404FC4: A1 00 C0 40 00                                  mov eax, dword ptr [0x40c000]
0x404FC9: 8D 50 02                                        lea edx, ptr [eax+0x2]
0x404FCC: 8B 85 54 FC FF FF                               mov eax, dword ptr [ebp-0x3ac]
0x404FD2: 89 04 95 04 C0 40 00                            mov dword ptr [edx*4+0x40c004], eax
0x404FD9: A1 00 C0 40 00                                  mov eax, dword ptr [0x40c000]
0x404FDE: 83 C0 03                                        add eax, 0x3
0x404FE1: A3 00 C0 40 00                                  mov dword ptr [0x40c000], eax
0x404FE6: A1 04 80 40 00                                  mov eax, dword ptr [0x408004]
0x404FEB: 83 F8 04                                        cmp eax, 0x4
0x404FEE: 0F 8E CF 00 00 00                               jle 0xd5
0x404FF4: A1 00 C0 40 00                                  mov eax, dword ptr [0x40c000]
0x404FF9: 83 C0 03                                        add eax, 0x3
0x404FFC: 83 F8 06                                        cmp eax, 0x6
0x404FFF: 0F 8F BE 00 00 00                               jnle 0xc4
0x405005: 8B 15 38 C0 40 00                               mov edx, dword ptr [0x40c038]
0x40500B: A1 28 C0 40 00                                  mov eax, dword ptr [0x40c028]
0x405010: 39 C2                                           cmp edx, eax
0x405012: 0F 85 AB 00 00 00                               jnz 0xb1
0x405018: 8B 15 38 C0 40 00                               mov edx, dword ptr [0x40c038]
0x40501E: A1 2C C0 40 00                                  mov eax, dword ptr [0x40c02c]
0x405023: 39 C2                                           cmp edx, eax
0x405025: 0F 85 98 00 00 00                               jnz 0x9e
0x40502B: A1 30 C0 40 00                                  mov eax, dword ptr [0x40c030]
0x405030: 89 85 50 FC FF FF                               mov dword ptr [ebp-0x3b0], eax
0x405036: A1 38 C0 40 00                                  mov eax, dword ptr [0x40c038]
0x40503B: 89 85 4C FC FF FF                               mov dword ptr [ebp-0x3b4], eax
0x405041: 8B 85 4C FC FF FF                               mov eax, dword ptr [ebp-0x3b4]
0x405047: 3B 85 50 FC FF FF                               cmp eax, dword ptr [ebp-0x3b0]
0x40504D: 7E 74                                           jle 0x76
0x40504F: A1 34 C0 40 00                                  mov eax, dword ptr [0x40c034]
0x405054: A3 28 C0 40 00                                  mov dword ptr [0x40c028], eax
0x405059: A1 04 80 40 00                                  mov eax, dword ptr [0x408004]
0x40505E: 83 E8 04                                        sub eax, 0x4
0x405061: A3 04 80 40 00                                  mov dword ptr [0x408004], eax
0x405066: 8B 95 50 FC FF FF                               mov edx, dword ptr [ebp-0x3b0]
0x40506C: 8B 85 4C FC FF FF                               mov eax, dword ptr [ebp-0x3b4]
0x405072: 01 D0                                           add eax, edx
0x405074: 89 85 48 FC FF FF                               mov dword ptr [ebp-0x3b8], eax
0x40507A: A1 00 C0 40 00                                  mov eax, dword ptr [0x40c000]
0x40507F: 8B 95 50 FC FF FF                               mov edx, dword ptr [ebp-0x3b0]
0x405085: 89 14 85 04 C0 40 00                            mov dword ptr [eax*4+0x40c004], edx
0x40508C: A1 00 C0 40 00                                  mov eax, dword ptr [0x40c000]
0x405091: 8D 50 01                                        lea edx, ptr [eax+0x1]
0x405094: 8B 85 4C FC FF FF                               mov eax, dword ptr [ebp-0x3b4]
0x40509A: 89 04 95 04 C0 40 00                            mov dword ptr [edx*4+0x40c004], eax
0x4050A1: A1 00 C0 40 00                                  mov eax, dword ptr [0x40c000]
0x4050A6: 8D 50 02                                        lea edx, ptr [eax+0x2]
0x4050A9: 8B 85 48 FC FF FF                               mov eax, dword ptr [ebp-0x3b8]
0x4050AF: 89 04 95 04 C0 40 00                            mov dword ptr [edx*4+0x40c004], eax
0x4050B6: A1 00 C0 40 00                                  mov eax, dword ptr [0x40c000]
0x4050BB: 83 C0 03                                        add eax, 0x3
0x4050BE: A3 00 C0 40 00                                  mov dword ptr [0x40c000], eax
0x4050C3: A1 04 80 40 00                                  mov eax, dword ptr [0x408004]
0x4050C8: 83 F8 04                                        cmp eax, 0x4
0x4050CB: 0F 8E CF 00 00 00                               jle 0xd5
0x4050D1: A1 00 C0 40 00                                  mov eax, dword ptr [0x40c000]
0x4050D6: 83 C0 03                                        add eax, 0x3
0x4050D9: 83 F8 06                                        cmp eax, 0x6
0x4050DC: 0F 8F BE 00 00 00                               jnle 0xc4
0x4050E2: 8B 15 38 C0 40 00                               mov edx, dword ptr [0x40c038]
0x4050E8: A1 28 C0 40 00                                  mov eax, dword ptr [0x40c028]
0x4050ED: 39 C2                                           cmp edx, eax
0x4050EF: 0F 85 AB 00 00 00                               jnz 0xb1
0x4050F5: 8B 15 38 C0 40 00                               mov edx, dword ptr [0x40c038]
0x4050FB: A1 34 C0 40 00                                  mov eax, dword ptr [0x40c034]
0x405100: 39 C2                                           cmp edx, eax
0x405102: 0F 85 98 00 00 00                               jnz 0x9e
0x405108: A1 30 C0 40 00                                  mov eax, dword ptr [0x40c030]
0x40510D: 89 85 44 FC FF FF                               mov dword ptr [ebp-0x3bc], eax
0x405113: A1 38 C0 40 00                                  mov eax, dword ptr [0x40c038]
0x405118: 89 85 40 FC FF FF                               mov dword ptr [ebp-0x3c0], eax
0x40511E: 8B 85 40 FC FF FF                               mov eax, dword ptr [ebp-0x3c0]
0x405124: 3B 85 44 FC FF FF                               cmp eax, dword ptr [ebp-0x3bc]
0x40512A: 7E 74                                           jle 0x76
0x40512C: A1 2C C0 40 00                                  mov eax, dword ptr [0x40c02c]
0x405131: A3 28 C0 40 00                                  mov dword ptr [0x40c028], eax
0x405136: A1 04 80 40 00                                  mov eax, dword ptr [0x408004]
0x40513B: 83 E8 04                                        sub eax, 0x4
0x40513E: A3 04 80 40 00                                  mov dword ptr [0x408004], eax
0x405143: 8B 95 44 FC FF FF                               mov edx, dword ptr [ebp-0x3bc]
0x405149: 8B 85 40 FC FF FF                               mov eax, dword ptr [ebp-0x3c0]
0x40514F: 01 D0                                           add eax, edx
0x405151: 89 85 3C FC FF FF                               mov dword ptr [ebp-0x3c4], eax
0x405157: A1 00 C0 40 00                                  mov eax, dword ptr [0x40c000]
0x40515C: 8B 95 44 FC FF FF                               mov edx, dword ptr [ebp-0x3bc]
0x405162: 89 14 85 04 C0 40 00                            mov dword ptr [eax*4+0x40c004], edx
0x405169: A1 00 C0 40 00                                  mov eax, dword ptr [0x40c000]
0x40516E: 8D 50 01                                        lea edx, ptr [eax+0x1]
0x405171: 8B 85 40 FC FF FF                               mov eax, dword ptr [ebp-0x3c0]
0x405177: 89 04 95 04 C0 40 00                            mov dword ptr [edx*4+0x40c004], eax
0x40517E: A1 00 C0 40 00                                  mov eax, dword ptr [0x40c000]
0x405183: 8D 50 02                                        lea edx, ptr [eax+0x2]
0x405186: 8B 85 3C FC FF FF                               mov eax, dword ptr [ebp-0x3c4]
0x40518C: 89 04 95 04 C0 40 00                            mov dword ptr [edx*4+0x40c004], eax
0x405193: A1 00 C0 40 00                                  mov eax, dword ptr [0x40c000]
0x405198: 83 C0 03                                        add eax, 0x3
0x40519B: A3 00 C0 40 00                                  mov dword ptr [0x40c000], eax
0x4051A0: A1 04 80 40 00                                  mov eax, dword ptr [0x408004]
0x4051A5: 83 F8 04                                        cmp eax, 0x4
0x4051A8: 0F 8E CF 00 00 00                               jle 0xd5
0x4051AE: A1 00 C0 40 00                                  mov eax, dword ptr [0x40c000]
0x4051B3: 83 C0 03                                        add eax, 0x3
0x4051B6: 83 F8 06                                        cmp eax, 0x6
0x4051B9: 0F 8F BE 00 00 00                               jnle 0xc4
0x4051BF: 8B 15 38 C0 40 00                               mov edx, dword ptr [0x40c038]
0x4051C5: A1 2C C0 40 00                                  mov eax, dword ptr [0x40c02c]
0x4051CA: 39 C2                                           cmp edx, eax
0x4051CC: 0F 85 AB 00 00 00                               jnz 0xb1
0x4051D2: 8B 15 38 C0 40 00                               mov edx, dword ptr [0x40c038]
0x4051D8: A1 28 C0 40 00                                  mov eax, dword ptr [0x40c028]
0x4051DD: 39 C2                                           cmp edx, eax
0x4051DF: 0F 85 98 00 00 00                               jnz 0x9e
0x4051E5: A1 30 C0 40 00                                  mov eax, dword ptr [0x40c030]
0x4051EA: 89 85 38 FC FF FF                               mov dword ptr [ebp-0x3c8], eax
0x4051F0: A1 38 C0 40 00                                  mov eax, dword ptr [0x40c038]
0x4051F5: 89 85 34 FC FF FF                               mov dword ptr [ebp-0x3cc], eax
0x4051FB: 8B 85 34 FC FF FF                               mov eax, dword ptr [ebp-0x3cc]
0x405201: 3B 85 38 FC FF FF                               cmp eax, dword ptr [ebp-0x3c8]
0x405207: 7E 74                                           jle 0x76
0x405209: A1 34 C0 40 00                                  mov eax, dword ptr [0x40c034]
0x40520E: A3 28 C0 40 00                                  mov dword ptr [0x40c028], eax
0x405213: A1 04 80 40 00                                  mov eax, dword ptr [0x408004]
0x405218: 83 E8 04                                        sub eax, 0x4
0x40521B: A3 04 80 40 00                                  mov dword ptr [0x408004], eax
0x405220: 8B 95 38 FC FF FF                               mov edx, dword ptr [ebp-0x3c8]
0x405226: 8B 85 34 FC FF FF                               mov eax, dword ptr [ebp-0x3cc]
0x40522C: 01 D0                                           add eax, edx
0x40522E: 89 85 30 FC FF FF                               mov dword ptr [ebp-0x3d0], eax
0x405234: A1 00 C0 40 00                                  mov eax, dword ptr [0x40c000]
0x405239: 8B 95 38 FC FF FF                               mov edx, dword ptr [ebp-0x3c8]
0x40523F: 89 14 85 04 C0 40 00                            mov dword ptr [eax*4+0x40c004], edx
0x405246: A1 00 C0 40 00                                  mov eax, dword ptr [0x40c000]
0x40524B: 8D 50 01                                        lea edx, ptr [eax+0x1]
0x40524E: 8B 85 34 FC FF FF                               mov eax, dword ptr [ebp-0x3cc]
0x405254: 89 04 95 04 C0 40 00                            mov dword ptr [edx*4+0x40c004], eax
0x40525B: A1 00 C0 40 00                                  mov eax, dword ptr [0x40c000]
0x405260: 8D 50 02                                        lea edx, ptr [eax+0x2]
0x405263: 8B 85 30 FC FF FF                               mov eax, dword ptr [ebp-0x3d0]
0x405269: 89 04 95 04 C0 40 00                            mov dword ptr [edx*4+0x40c004], eax
0x405270: A1 00 C0 40 00                                  mov eax, dword ptr [0x40c000]
0x405275: 83 C0 03                                        add eax, 0x3
0x405278: A3 00 C0 40 00                                  mov dword ptr [0x40c000], eax
0x40527D: A1 04 80 40 00                                  mov eax, dword ptr [0x408004]
0x405282: 83 F8 04                                        cmp eax, 0x4
0x405285: 0F 8E C5 00 00 00                               jle 0xcb
0x40528B: A1 00 C0 40 00                                  mov eax, dword ptr [0x40c000]
0x405290: 83 C0 03                                        add eax, 0x3
0x405293: 83 F8 06                                        cmp eax, 0x6
0x405296: 0F 8F B4 00 00 00                               jnle 0xba
0x40529C: 8B 15 38 C0 40 00                               mov edx, dword ptr [0x40c038]
0x4052A2: A1 2C C0 40 00                                  mov eax, dword ptr [0x40c02c]
0x4052A7: 39 C2                                           cmp edx, eax
0x4052A9: 0F 85 A1 00 00 00                               jnz 0xa7
0x4052AF: 8B 15 38 C0 40 00                               mov edx, dword ptr [0x40c038]
0x4052B5: A1 34 C0 40 00                                  mov eax, dword ptr [0x40c034]
0x4052BA: 39 C2                                           cmp edx, eax
0x4052BC: 0F 85 8E 00 00 00                               jnz 0x94
0x4052C2: A1 30 C0 40 00                                  mov eax, dword ptr [0x40c030]
0x4052C7: 89 85 2C FC FF FF                               mov dword ptr [ebp-0x3d4], eax
0x4052CD: A1 38 C0 40 00                                  mov eax, dword ptr [0x40c038]
0x4052D2: 89 85 28 FC FF FF                               mov dword ptr [ebp-0x3d8], eax
0x4052D8: 8B 85 28 FC FF FF                               mov eax, dword ptr [ebp-0x3d8]
0x4052DE: 3B 85 2C FC FF FF                               cmp eax, dword ptr [ebp-0x3d4]
0x4052E4: 7E 6A                                           jle 0x6c
0x4052E6: A1 04 80 40 00                                  mov eax, dword ptr [0x408004]
0x4052EB: 83 E8 04                                        sub eax, 0x4
0x4052EE: A3 04 80 40 00                                  mov dword ptr [0x408004], eax
0x4052F3: 8B 95 2C FC FF FF                               mov edx, dword ptr [ebp-0x3d4]
0x4052F9: 8B 85 28 FC FF FF                               mov eax, dword ptr [ebp-0x3d8]
0x4052FF: 01 D0                                           add eax, edx
0x405301: 89 85 24 FC FF FF                               mov dword ptr [ebp-0x3dc], eax
0x405307: A1 00 C0 40 00                                  mov eax, dword ptr [0x40c000]
0x40530C: 8B 95 2C FC FF FF                               mov edx, dword ptr [ebp-0x3d4]
0x405312: 89 14 85 04 C0 40 00                            mov dword ptr [eax*4+0x40c004], edx
0x405319: A1 00 C0 40 00                                  mov eax, dword ptr [0x40c000]
0x40531E: 8D 50 01                                        lea edx, ptr [eax+0x1]
0x405321: 8B 85 28 FC FF FF                               mov eax, dword ptr [ebp-0x3d8]
0x405327: 89 04 95 04 C0 40 00                            mov dword ptr [edx*4+0x40c004], eax
0x40532E: A1 00 C0 40 00                                  mov eax, dword ptr [0x40c000]
0x405333: 8D 50 02                                        lea edx, ptr [eax+0x2]
0x405336: 8B 85 24 FC FF FF                               mov eax, dword ptr [ebp-0x3dc]
0x40533C: 89 04 95 04 C0 40 00                            mov dword ptr [edx*4+0x40c004], eax
0x405343: A1 00 C0 40 00                                  mov eax, dword ptr [0x40c000]
0x405348: 83 C0 03                                        add eax, 0x3
0x40534B: A3 00 C0 40 00                                  mov dword ptr [0x40c000], eax
0x405350: A1 04 80 40 00                                  mov eax, dword ptr [0x408004]
0x405355: 83 F8 04                                        cmp eax, 0x4
0x405358: 0F 8E CF 00 00 00                               jle 0xd5
0x40535E: A1 00 C0 40 00                                  mov eax, dword ptr [0x40c000]
0x405363: 83 C0 03                                        add eax, 0x3
0x405366: 83 F8 06                                        cmp eax, 0x6
0x405369: 0F 8F BE 00 00 00                               jnle 0xc4
0x40536F: 8B 15 38 C0 40 00                               mov edx, dword ptr [0x40c038]
0x405375: A1 34 C0 40 00                                  mov eax, dword ptr [0x40c034]
0x40537A: 39 C2                                           cmp edx, eax
0x40537C: 0F 85 AB 00 00 00                               jnz 0xb1
0x405382: 8B 15 38 C0 40 00                               mov edx, dword ptr [0x40c038]
0x405388: A1 28 C0 40 00                                  mov eax, dword ptr [0x40c028]
0x40538D: 39 C2                                           cmp edx, eax
0x40538F: 0F 85 98 00 00 00                               jnz 0x9e
0x405395: A1 30 C0 40 00                                  mov eax, dword ptr [0x40c030]
0x40539A: 89 85 20 FC FF FF                               mov dword ptr [ebp-0x3e0], eax
0x4053A0: A1 38 C0 40 00                                  mov eax, dword ptr [0x40c038]
0x4053A5: 89 85 1C FC FF FF                               mov dword ptr [ebp-0x3e4], eax
0x4053AB: 8B 85 1C FC FF FF                               mov eax, dword ptr [ebp-0x3e4]
0x4053B1: 3B 85 20 FC FF FF                               cmp eax, dword ptr [ebp-0x3e0]
0x4053B7: 7E 74                                           jle 0x76
0x4053B9: A1 2C C0 40 00                                  mov eax, dword ptr [0x40c02c]
0x4053BE: A3 28 C0 40 00                                  mov dword ptr [0x40c028], eax
0x4053C3: A1 04 80 40 00                                  mov eax, dword ptr [0x408004]
0x4053C8: 83 E8 04                                        sub eax, 0x4
0x4053CB: A3 04 80 40 00                                  mov dword ptr [0x408004], eax
0x4053D0: 8B 95 20 FC FF FF                               mov edx, dword ptr [ebp-0x3e0]
0x4053D6: 8B 85 1C FC FF FF                               mov eax, dword ptr [ebp-0x3e4]
0x4053DC: 01 D0                                           add eax, edx
0x4053DE: 89 85 18 FC FF FF                               mov dword ptr [ebp-0x3e8], eax
0x4053E4: A1 00 C0 40 00                                  mov eax, dword ptr [0x40c000]
0x4053E9: 8B 95 20 FC FF FF                               mov edx, dword ptr [ebp-0x3e0]
0x4053EF: 89 14 85 04 C0 40 00                            mov dword ptr [eax*4+0x40c004], edx
0x4053F6: A1 00 C0 40 00                                  mov eax, dword ptr [0x40c000]
0x4053FB: 8D 50 01                                        lea edx, ptr [eax+0x1]
0x4053FE: 8B 85 1C FC FF FF                               mov eax, dword ptr [ebp-0x3e4]
0x405404: 89 04 95 04 C0 40 00                            mov dword ptr [edx*4+0x40c004], eax
0x40540B: A1 00 C0 40 00                                  mov eax, dword ptr [0x40c000]
0x405410: 8D 50 02                                        lea edx, ptr [eax+0x2]
0x405413: 8B 85 18 FC FF FF                               mov eax, dword ptr [ebp-0x3e8]
0x405419: 89 04 95 04 C0 40 00                            mov dword ptr [edx*4+0x40c004], eax
0x405420: A1 00 C0 40 00                                  mov eax, dword ptr [0x40c000]
0x405425: 83 C0 03                                        add eax, 0x3
0x405428: A3 00 C0 40 00                                  mov dword ptr [0x40c000], eax
0x40542D: A1 04 80 40 00                                  mov eax, dword ptr [0x408004]
0x405432: 83 F8 04                                        cmp eax, 0x4
0x405435: 0F 8E C5 00 00 00                               jle 0xcb
0x40543B: A1 00 C0 40 00                                  mov eax, dword ptr [0x40c000]
0x405440: 83 C0 03                                        add eax, 0x3
0x405443: 83 F8 06                                        cmp eax, 0x6
0x405446: 0F 8F B4 00 00 00                               jnle 0xba
0x40544C: 8B 15 38 C0 40 00                               mov edx, dword ptr [0x40c038]
0x405452: A1 34 C0 40 00                                  mov eax, dword ptr [0x40c034]
0x405457: 39 C2                                           cmp edx, eax
0x405459: 0F 85 A1 00 00 00                               jnz 0xa7
0x40545F: 8B 15 38 C0 40 00                               mov edx, dword ptr [0x40c038]
0x405465: A1 2C C0 40 00                                  mov eax, dword ptr [0x40c02c]
0x40546A: 39 C2                                           cmp edx, eax
0x40546C: 0F 85 8E 00 00 00                               jnz 0x94
0x405472: A1 30 C0 40 00                                  mov eax, dword ptr [0x40c030]
0x405477: 89 85 14 FC FF FF                               mov dword ptr [ebp-0x3ec], eax
0x40547D: A1 38 C0 40 00                                  mov eax, dword ptr [0x40c038]
0x405482: 89 85 10 FC FF FF                               mov dword ptr [ebp-0x3f0], eax
0x405488: 8B 85 10 FC FF FF                               mov eax, dword ptr [ebp-0x3f0]
0x40548E: 3B 85 14 FC FF FF                               cmp eax, dword ptr [ebp-0x3ec]
0x405494: 7E 6A                                           jle 0x6c
0x405496: A1 04 80 40 00                                  mov eax, dword ptr [0x408004]
0x40549B: 83 E8 04                                        sub eax, 0x4
0x40549E: A3 04 80 40 00                                  mov dword ptr [0x408004], eax
0x4054A3: 8B 95 14 FC FF FF                               mov edx, dword ptr [ebp-0x3ec]
0x4054A9: 8B 85 10 FC FF FF                               mov eax, dword ptr [ebp-0x3f0]
0x4054AF: 01 D0                                           add eax, edx
0x4054B1: 89 85 0C FC FF FF                               mov dword ptr [ebp-0x3f4], eax
0x4054B7: A1 00 C0 40 00                                  mov eax, dword ptr [0x40c000]
0x4054BC: 8B 95 14 FC FF FF                               mov edx, dword ptr [ebp-0x3ec]
0x4054C2: 89 14 85 04 C0 40 00                            mov dword ptr [eax*4+0x40c004], edx
0x4054C9: A1 00 C0 40 00                                  mov eax, dword ptr [0x40c000]
0x4054CE: 8D 50 01                                        lea edx, ptr [eax+0x1]
0x4054D1: 8B 85 10 FC FF FF                               mov eax, dword ptr [ebp-0x3f0]
0x4054D7: 89 04 95 04 C0 40 00                            mov dword ptr [edx*4+0x40c004], eax
0x4054DE: A1 00 C0 40 00                                  mov eax, dword ptr [0x40c000]
0x4054E3: 8D 50 02                                        lea edx, ptr [eax+0x2]
0x4054E6: 8B 85 0C FC FF FF                               mov eax, dword ptr [ebp-0x3f4]
0x4054EC: 89 04 95 04 C0 40 00                            mov dword ptr [edx*4+0x40c004], eax
0x4054F3: A1 00 C0 40 00                                  mov eax, dword ptr [0x40c000]
0x4054F8: 83 C0 03                                        add eax, 0x3
0x4054FB: A3 00 C0 40 00                                  mov dword ptr [0x40c000], eax
0x405500: A1 04 80 40 00                                  mov eax, dword ptr [0x408004]
0x405505: 83 F8 04                                        cmp eax, 0x4
0x405508: 0F 8E CF 00 00 00                               jle 0xd5
0x40550E: A1 00 C0 40 00                                  mov eax, dword ptr [0x40c000]
0x405513: 83 C0 03                                        add eax, 0x3
0x405516: 83 F8 06                                        cmp eax, 0x6
0x405519: 0F 8F BE 00 00 00                               jnle 0xc4
0x40551F: 8B 15 28 C0 40 00                               mov edx, dword ptr [0x40c028]
0x405525: A1 2C C0 40 00                                  mov eax, dword ptr [0x40c02c]
0x40552A: 39 C2                                           cmp edx, eax
0x40552C: 0F 85 AB 00 00 00                               jnz 0xb1
0x405532: 8B 15 28 C0 40 00                               mov edx, dword ptr [0x40c028]
0x405538: A1 38 C0 40 00                                  mov eax, dword ptr [0x40c038]
0x40553D: 39 C2                                           cmp edx, eax
0x40553F: 0F 85 98 00 00 00                               jnz 0x9e
0x405545: A1 34 C0 40 00                                  mov eax, dword ptr [0x40c034]
0x40554A: 89 85 08 FC FF FF                               mov dword ptr [ebp-0x3f8], eax
0x405550: A1 28 C0 40 00                                  mov eax, dword ptr [0x40c028]
0x405555: 89 85 04 FC FF FF                               mov dword ptr [ebp-0x3fc], eax
0x40555B: 8B 85 04 FC FF FF                               mov eax, dword ptr [ebp-0x3fc]
0x405561: 3B 85 08 FC FF FF                               cmp eax, dword ptr [ebp-0x3f8]
0x405567: 7E 74                                           jle 0x76
0x405569: A1 30 C0 40 00                                  mov eax, dword ptr [0x40c030]
0x40556E: A3 28 C0 40 00                                  mov dword ptr [0x40c028], eax
0x405573: A1 04 80 40 00                                  mov eax, dword ptr [0x408004]
0x405578: 83 E8 04                                        sub eax, 0x4
0x40557B: A3 04 80 40 00                                  mov dword ptr [0x408004], eax
0x405580: 8B 95 08 FC FF FF                               mov edx, dword ptr [ebp-0x3f8]
0x405586: 8B 85 04 FC FF FF                               mov eax, dword ptr [ebp-0x3fc]
0x40558C: 01 D0                                           add eax, edx
0x40558E: 89 85 00 FC FF FF                               mov dword ptr [ebp-0x400], eax
0x405594: A1 00 C0 40 00                                  mov eax, dword ptr [0x40c000]
0x405599: 8B 95 08 FC FF FF                               mov edx, dword ptr [ebp-0x3f8]
0x40559F: 89 14 85 04 C0 40 00                            mov dword ptr [eax*4+0x40c004], edx
0x4055A6: A1 00 C0 40 00                                  mov eax, dword ptr [0x40c000]
0x4055AB: 8D 50 01                                        lea edx, ptr [eax+0x1]
0x4055AE: 8B 85 04 FC FF FF                               mov eax, dword ptr [ebp-0x3fc]
0x4055B4: 89 04 95 04 C0 40 00                            mov dword ptr [edx*4+0x40c004], eax
0x4055BB: A1 00 C0 40 00                                  mov eax, dword ptr [0x40c000]
0x4055C0: 8D 50 02                                        lea edx, ptr [eax+0x2]
0x4055C3: 8B 85 00 FC FF FF                               mov eax, dword ptr [ebp-0x400]
0x4055C9: 89 04 95 04 C0 40 00                            mov dword ptr [edx*4+0x40c004], eax
0x4055D0: A1 00 C0 40 00                                  mov eax, dword ptr [0x40c000]
0x4055D5: 83 C0 03                                        add eax, 0x3
0x4055D8: A3 00 C0 40 00                                  mov dword ptr [0x40c000], eax
0x4055DD: A1 04 80 40 00                                  mov eax, dword ptr [0x408004]
0x4055E2: 83 F8 04                                        cmp eax, 0x4
0x4055E5: 0F 8E CF 00 00 00                               jle 0xd5
0x4055EB: A1 00 C0 40 00                                  mov eax, dword ptr [0x40c000]
0x4055F0: 83 C0 03                                        add eax, 0x3
0x4055F3: 83 F8 06                                        cmp eax, 0x6
0x4055F6: 0F 8F BE 00 00 00                               jnle 0xc4
0x4055FC: 8B 15 28 C0 40 00                               mov edx, dword ptr [0x40c028]
0x405602: A1 30 C0 40 00                                  mov eax, dword ptr [0x40c030]
0x405607: 39 C2                                           cmp edx, eax
0x405609: 0F 85 AB 00 00 00                               jnz 0xb1
0x40560F: 8B 15 28 C0 40 00                               mov edx, dword ptr [0x40c028]
0x405615: A1 38 C0 40 00                                  mov eax, dword ptr [0x40c038]
0x40561A: 39 C2                                           cmp edx, eax
0x40561C: 0F 85 98 00 00 00                               jnz 0x9e
0x405622: A1 34 C0 40 00                                  mov eax, dword ptr [0x40c034]
0x405627: 89 85 FC FB FF FF                               mov dword ptr [ebp-0x404], eax
0x40562D: A1 28 C0 40 00                                  mov eax, dword ptr [0x40c028]
0x405632: 89 85 F8 FB FF FF                               mov dword ptr [ebp-0x408], eax
0x405638: 8B 85 F8 FB FF FF                               mov eax, dword ptr [ebp-0x408]
0x40563E: 3B 85 FC FB FF FF                               cmp eax, dword ptr [ebp-0x404]
0x405644: 7E 74                                           jle 0x76
0x405646: A1 2C C0 40 00                                  mov eax, dword ptr [0x40c02c]
0x40564B: A3 28 C0 40 00                                  mov dword ptr [0x40c028], eax
0x405650: A1 04 80 40 00                                  mov eax, dword ptr [0x408004]
0x405655: 83 E8 04                                        sub eax, 0x4
0x405658: A3 04 80 40 00                                  mov dword ptr [0x408004], eax
0x40565D: 8B 95 FC FB FF FF                               mov edx, dword ptr [ebp-0x404]
0x405663: 8B 85 F8 FB FF FF                               mov eax, dword ptr [ebp-0x408]
0x405669: 01 D0                                           add eax, edx
0x40566B: 89 85 F4 FB FF FF                               mov dword ptr [ebp-0x40c], eax
0x405671: A1 00 C0 40 00                                  mov eax, dword ptr [0x40c000]
0x405676: 8B 95 FC FB FF FF                               mov edx, dword ptr [ebp-0x404]
0x40567C: 89 14 85 04 C0 40 00                            mov dword ptr [eax*4+0x40c004], edx
0x405683: A1 00 C0 40 00                                  mov eax, dword ptr [0x40c000]
0x405688: 8D 50 01                                        lea edx, ptr [eax+0x1]
0x40568B: 8B 85 F8 FB FF FF                               mov eax, dword ptr [ebp-0x408]
0x405691: 89 04 95 04 C0 40 00                            mov dword ptr [edx*4+0x40c004], eax
0x405698: A1 00 C0 40 00                                  mov eax, dword ptr [0x40c000]
0x40569D: 8D 50 02                                        lea edx, ptr [eax+0x2]
0x4056A0: 8B 85 F4 FB FF FF                               mov eax, dword ptr [ebp-0x40c]
0x4056A6: 89 04 95 04 C0 40 00                            mov dword ptr [edx*4+0x40c004], eax
0x4056AD: A1 00 C0 40 00                                  mov eax, dword ptr [0x40c000]
0x4056B2: 83 C0 03                                        add eax, 0x3
0x4056B5: A3 00 C0 40 00                                  mov dword ptr [0x40c000], eax
0x4056BA: A1 04 80 40 00                                  mov eax, dword ptr [0x408004]
0x4056BF: 83 F8 04                                        cmp eax, 0x4
0x4056C2: 0F 8E CF 00 00 00                               jle 0xd5
0x4056C8: A1 00 C0 40 00                                  mov eax, dword ptr [0x40c000]
0x4056CD: 83 C0 03                                        add eax, 0x3
0x4056D0: 83 F8 06                                        cmp eax, 0x6
0x4056D3: 0F 8F BE 00 00 00                               jnle 0xc4
0x4056D9: 8B 15 28 C0 40 00                               mov edx, dword ptr [0x40c028]
0x4056DF: A1 38 C0 40 00                                  mov eax, dword ptr [0x40c038]
0x4056E4: 39 C2                                           cmp edx, eax
0x4056E6: 0F 85 AB 00 00 00                               jnz 0xb1
0x4056EC: 8B 15 28 C0 40 00                               mov edx, dword ptr [0x40c028]
0x4056F2: A1 2C C0 40 00                                  mov eax, dword ptr [0x40c02c]
0x4056F7: 39 C2                                           cmp edx, eax
0x4056F9: 0F 85 98 00 00 00                               jnz 0x9e
0x4056FF: A1 34 C0 40 00                                  mov eax, dword ptr [0x40c034]
0x405704: 89 85 F0 FB FF FF                               mov dword ptr [ebp-0x410], eax
0x40570A: A1 28 C0 40 00                                  mov eax, dword ptr [0x40c028]
0x40570F: 89 85 EC FB FF FF                               mov dword ptr [ebp-0x414], eax
0x405715: 8B 85 EC FB FF FF                               mov eax, dword ptr [ebp-0x414]
0x40571B: 3B 85 F0 FB FF FF                               cmp eax, dword ptr [ebp-0x410]
0x405721: 7E 74                                           jle 0x76
0x405723: A1 30 C0 40 00                                  mov eax, dword ptr [0x40c030]
0x405728: A3 28 C0 40 00                                  mov dword ptr [0x40c028], eax
0x40572D: A1 04 80 40 00                                  mov eax, dword ptr [0x408004]
0x405732: 83 E8 04                                        sub eax, 0x4
0x405735: A3 04 80 40 00                                  mov dword ptr [0x408004], eax
0x40573A: 8B 95 F0 FB FF FF                               mov edx, dword ptr [ebp-0x410]
0x405740: 8B 85 EC FB FF FF                               mov eax, dword ptr [ebp-0x414]
0x405746: 01 D0                                           add eax, edx
0x405748: 89 85 E8 FB FF FF                               mov dword ptr [ebp-0x418], eax
0x40574E: A1 00 C0 40 00                                  mov eax, dword ptr [0x40c000]
0x405753: 8B 95 F0 FB FF FF                               mov edx, dword ptr [ebp-0x410]
0x405759: 89 14 85 04 C0 40 00                            mov dword ptr [eax*4+0x40c004], edx
0x405760: A1 00 C0 40 00                                  mov eax, dword ptr [0x40c000]
0x405765: 8D 50 01                                        lea edx, ptr [eax+0x1]
0x405768: 8B 85 EC FB FF FF                               mov eax, dword ptr [ebp-0x414]
0x40576E: 89 04 95 04 C0 40 00                            mov dword ptr [edx*4+0x40c004], eax
0x405775: A1 00 C0 40 00                                  mov eax, dword ptr [0x40c000]
0x40577A: 8D 50 02                                        lea edx, ptr [eax+0x2]
0x40577D: 8B 85 E8 FB FF FF                               mov eax, dword ptr [ebp-0x418]
0x405783: 89 04 95 04 C0 40 00                            mov dword ptr [edx*4+0x40c004], eax
0x40578A: A1 00 C0 40 00                                  mov eax, dword ptr [0x40c000]
0x40578F: 83 C0 03                                        add eax, 0x3
0x405792: A3 00 C0 40 00                                  mov dword ptr [0x40c000], eax
0x405797: A1 04 80 40 00                                  mov eax, dword ptr [0x408004]
0x40579C: 83 F8 04                                        cmp eax, 0x4
0x40579F: 0F 8E CF 00 00 00                               jle 0xd5
0x4057A5: A1 00 C0 40 00                                  mov eax, dword ptr [0x40c000]
0x4057AA: 83 C0 03                                        add eax, 0x3
0x4057AD: 83 F8 06                                        cmp eax, 0x6
0x4057B0: 0F 8F BE 00 00 00                               jnle 0xc4
0x4057B6: 8B 15 28 C0 40 00                               mov edx, dword ptr [0x40c028]
0x4057BC: A1 38 C0 40 00                                  mov eax, dword ptr [0x40c038]
0x4057C1: 39 C2                                           cmp edx, eax
0x4057C3: 0F 85 AB 00 00 00                               jnz 0xb1
0x4057C9: 8B 15 28 C0 40 00                               mov edx, dword ptr [0x40c028]
0x4057CF: A1 30 C0 40 00                                  mov eax, dword ptr [0x40c030]
0x4057D4: 39 C2                                           cmp edx, eax
0x4057D6: 0F 85 98 00 00 00                               jnz 0x9e
0x4057DC: A1 34 C0 40 00                                  mov eax, dword ptr [0x40c034]
0x4057E1: 89 85 E4 FB FF FF                               mov dword ptr [ebp-0x41c], eax
0x4057E7: A1 28 C0 40 00                                  mov eax, dword ptr [0x40c028]
0x4057EC: 89 85 E0 FB FF FF                               mov dword ptr [ebp-0x420], eax
0x4057F2: 8B 85 E0 FB FF FF                               mov eax, dword ptr [ebp-0x420]
0x4057F8: 3B 85 E4 FB FF FF                               cmp eax, dword ptr [ebp-0x41c]
0x4057FE: 7E 74                                           jle 0x76
0x405800: A1 2C C0 40 00                                  mov eax, dword ptr [0x40c02c]
0x405805: A3 28 C0 40 00                                  mov dword ptr [0x40c028], eax
0x40580A: A1 04 80 40 00                                  mov eax, dword ptr [0x408004]
0x40580F: 83 E8 04                                        sub eax, 0x4
0x405812: A3 04 80 40 00                                  mov dword ptr [0x408004], eax
0x405817: 8B 95 E4 FB FF FF                               mov edx, dword ptr [ebp-0x41c]
0x40581D: 8B 85 E0 FB FF FF                               mov eax, dword ptr [ebp-0x420]
0x405823: 01 D0                                           add eax, edx
0x405825: 89 85 DC FB FF FF                               mov dword ptr [ebp-0x424], eax
0x40582B: A1 00 C0 40 00                                  mov eax, dword ptr [0x40c000]
0x405830: 8B 95 E4 FB FF FF                               mov edx, dword ptr [ebp-0x41c]
0x405836: 89 14 85 04 C0 40 00                            mov dword ptr [eax*4+0x40c004], edx
0x40583D: A1 00 C0 40 00                                  mov eax, dword ptr [0x40c000]
0x405842: 8D 50 01                                        lea edx, ptr [eax+0x1]
0x405845: 8B 85 E0 FB FF FF                               mov eax, dword ptr [ebp-0x420]
0x40584B: 89 04 95 04 C0 40 00                            mov dword ptr [edx*4+0x40c004], eax
0x405852: A1 00 C0 40 00                                  mov eax, dword ptr [0x40c000]
0x405857: 8D 50 02                                        lea edx, ptr [eax+0x2]
0x40585A: 8B 85 DC FB FF FF                               mov eax, dword ptr [ebp-0x424]
0x405860: 89 04 95 04 C0 40 00                            mov dword ptr [edx*4+0x40c004], eax
0x405867: A1 00 C0 40 00                                  mov eax, dword ptr [0x40c000]
0x40586C: 83 C0 03                                        add eax, 0x3
0x40586F: A3 00 C0 40 00                                  mov dword ptr [0x40c000], eax
0x405874: A1 04 80 40 00                                  mov eax, dword ptr [0x408004]
0x405879: 83 F8 04                                        cmp eax, 0x4
0x40587C: 0F 8E CF 00 00 00                               jle 0xd5
0x405882: A1 00 C0 40 00                                  mov eax, dword ptr [0x40c000]
0x405887: 83 C0 03                                        add eax, 0x3
0x40588A: 83 F8 06                                        cmp eax, 0x6
0x40588D: 0F 8F BE 00 00 00                               jnle 0xc4
0x405893: 8B 15 2C C0 40 00                               mov edx, dword ptr [0x40c02c]
0x405899: A1 28 C0 40 00                                  mov eax, dword ptr [0x40c028]
0x40589E: 39 C2                                           cmp edx, eax
0x4058A0: 0F 85 AB 00 00 00                               jnz 0xb1
0x4058A6: 8B 15 2C C0 40 00                               mov edx, dword ptr [0x40c02c]
0x4058AC: A1 38 C0 40 00                                  mov eax, dword ptr [0x40c038]
0x4058B1: 39 C2                                           cmp edx, eax
0x4058B3: 0F 85 98 00 00 00                               jnz 0x9e
0x4058B9: A1 34 C0 40 00                                  mov eax, dword ptr [0x40c034]
0x4058BE: 89 85 D8 FB FF FF                               mov dword ptr [ebp-0x428], eax
0x4058C4: A1 2C C0 40 00                                  mov eax, dword ptr [0x40c02c]
0x4058C9: 89 85 D4 FB FF FF                               mov dword ptr [ebp-0x42c], eax
0x4058CF: 8B 85 D4 FB FF FF                               mov eax, dword ptr [ebp-0x42c]
0x4058D5: 3B 85 D8 FB FF FF                               cmp eax, dword ptr [ebp-0x428]
0x4058DB: 7E 74                                           jle 0x76
0x4058DD: A1 30 C0 40 00                                  mov eax, dword ptr [0x40c030]
0x4058E2: A3 28 C0 40 00                                  mov dword ptr [0x40c028], eax
0x4058E7: A1 04 80 40 00                                  mov eax, dword ptr [0x408004]
0x4058EC: 83 E8 04                                        sub eax, 0x4
0x4058EF: A3 04 80 40 00                                  mov dword ptr [0x408004], eax
0x4058F4: 8B 95 D8 FB FF FF                               mov edx, dword ptr [ebp-0x428]
0x4058FA: 8B 85 D4 FB FF FF                               mov eax, dword ptr [ebp-0x42c]
0x405900: 01 D0                                           add eax, edx
0x405902: 89 85 D0 FB FF FF                               mov dword ptr [ebp-0x430], eax
0x405908: A1 00 C0 40 00                                  mov eax, dword ptr [0x40c000]
0x40590D: 8B 95 D8 FB FF FF                               mov edx, dword ptr [ebp-0x428]
0x405913: 89 14 85 04 C0 40 00                            mov dword ptr [eax*4+0x40c004], edx
0x40591A: A1 00 C0 40 00                                  mov eax, dword ptr [0x40c000]
0x40591F: 8D 50 01                                        lea edx, ptr [eax+0x1]
0x405922: 8B 85 D4 FB FF FF                               mov eax, dword ptr [ebp-0x42c]
0x405928: 89 04 95 04 C0 40 00                            mov dword ptr [edx*4+0x40c004], eax
0x40592F: A1 00 C0 40 00                                  mov eax, dword ptr [0x40c000]
0x405934: 8D 50 02                                        lea edx, ptr [eax+0x2]
0x405937: 8B 85 D0 FB FF FF                               mov eax, dword ptr [ebp-0x430]
0x40593D: 89 04 95 04 C0 40 00                            mov dword ptr [edx*4+0x40c004], eax
0x405944: A1 00 C0 40 00                                  mov eax, dword ptr [0x40c000]
0x405949: 83 C0 03                                        add eax, 0x3
0x40594C: A3 00 C0 40 00                                  mov dword ptr [0x40c000], eax
0x405951: A1 04 80 40 00                                  mov eax, dword ptr [0x408004]
0x405956: 83 F8 04                                        cmp eax, 0x4
0x405959: 0F 8E C5 00 00 00                               jle 0xcb
0x40595F: A1 00 C0 40 00                                  mov eax, dword ptr [0x40c000]
0x405964: 83 C0 03                                        add eax, 0x3
0x405967: 83 F8 06                                        cmp eax, 0x6
0x40596A: 0F 8F B4 00 00 00                               jnle 0xba
0x405970: 8B 15 2C C0 40 00                               mov edx, dword ptr [0x40c02c]
0x405976: A1 30 C0 40 00                                  mov eax, dword ptr [0x40c030]
0x40597B: 39 C2                                           cmp edx, eax
0x40597D: 0F 85 A1 00 00 00                               jnz 0xa7
0x405983: 8B 15 2C C0 40 00                               mov edx, dword ptr [0x40c02c]
0x405989: A1 38 C0 40 00                                  mov eax, dword ptr [0x40c038]
0x40598E: 39 C2                                           cmp edx, eax
0x405990: 0F 85 8E 00 00 00                               jnz 0x94
0x405996: A1 34 C0 40 00                                  mov eax, dword ptr [0x40c034]
0x40599B: 89 85 CC FB FF FF                               mov dword ptr [ebp-0x434], eax
0x4059A1: A1 2C C0 40 00                                  mov eax, dword ptr [0x40c02c]
0x4059A6: 89 85 C8 FB FF FF                               mov dword ptr [ebp-0x438], eax
0x4059AC: 8B 85 C8 FB FF FF                               mov eax, dword ptr [ebp-0x438]
0x4059B2: 3B 85 CC FB FF FF                               cmp eax, dword ptr [ebp-0x434]
0x4059B8: 7E 6A                                           jle 0x6c
0x4059BA: A1 04 80 40 00                                  mov eax, dword ptr [0x408004]
0x4059BF: 83 E8 04                                        sub eax, 0x4
0x4059C2: A3 04 80 40 00                                  mov dword ptr [0x408004], eax
0x4059C7: 8B 95 CC FB FF FF                               mov edx, dword ptr [ebp-0x434]
0x4059CD: 8B 85 C8 FB FF FF                               mov eax, dword ptr [ebp-0x438]
0x4059D3: 01 D0                                           add eax, edx
0x4059D5: 89 85 C4 FB FF FF                               mov dword ptr [ebp-0x43c], eax
0x4059DB: A1 00 C0 40 00                                  mov eax, dword ptr [0x40c000]
0x4059E0: 8B 95 CC FB FF FF                               mov edx, dword ptr [ebp-0x434]
0x4059E6: 89 14 85 04 C0 40 00                            mov dword ptr [eax*4+0x40c004], edx
0x4059ED: A1 00 C0 40 00                                  mov eax, dword ptr [0x40c000]
0x4059F2: 8D 50 01                                        lea edx, ptr [eax+0x1]
0x4059F5: 8B 85 C8 FB FF FF                               mov eax, dword ptr [ebp-0x438]
0x4059FB: 89 04 95 04 C0 40 00                            mov dword ptr [edx*4+0x40c004], eax
0x405A02: A1 00 C0 40 00                                  mov eax, dword ptr [0x40c000]
0x405A07: 8D 50 02                                        lea edx, ptr [eax+0x2]
0x405A0A: 8B 85 C4 FB FF FF                               mov eax, dword ptr [ebp-0x43c]
0x405A10: 89 04 95 04 C0 40 00                            mov dword ptr [edx*4+0x40c004], eax
0x405A17: A1 00 C0 40 00                                  mov eax, dword ptr [0x40c000]
0x405A1C: 83 C0 03                                        add eax, 0x3
0x405A1F: A3 00 C0 40 00                                  mov dword ptr [0x40c000], eax
0x405A24: A1 04 80 40 00                                  mov eax, dword ptr [0x408004]
0x405A29: 83 F8 04                                        cmp eax, 0x4
0x405A2C: 0F 8E CF 00 00 00                               jle 0xd5
0x405A32: A1 00 C0 40 00                                  mov eax, dword ptr [0x40c000]
0x405A37: 83 C0 03                                        add eax, 0x3
0x405A3A: 83 F8 06                                        cmp eax, 0x6
0x405A3D: 0F 8F BE 00 00 00                               jnle 0xc4
0x405A43: 8B 15 2C C0 40 00                               mov edx, dword ptr [0x40c02c]
0x405A49: A1 38 C0 40 00                                  mov eax, dword ptr [0x40c038]
0x405A4E: 39 C2                                           cmp edx, eax
0x405A50: 0F 85 AB 00 00 00                               jnz 0xb1
0x405A56: 8B 15 2C C0 40 00                               mov edx, dword ptr [0x40c02c]
0x405A5C: A1 28 C0 40 00                                  mov eax, dword ptr [0x40c028]
0x405A61: 39 C2                                           cmp edx, eax
0x405A63: 0F 85 98 00 00 00                               jnz 0x9e
0x405A69: A1 34 C0 40 00                                  mov eax, dword ptr [0x40c034]
0x405A6E: 89 85 C0 FB FF FF                               mov dword ptr [ebp-0x440], eax
0x405A74: A1 2C C0 40 00                                  mov eax, dword ptr [0x40c02c]
0x405A79: 89 85 BC FB FF FF                               mov dword ptr [ebp-0x444], eax
0x405A7F: 8B 85 BC FB FF FF                               mov eax, dword ptr [ebp-0x444]
0x405A85: 3B 85 C0 FB FF FF                               cmp eax, dword ptr [ebp-0x440]
0x405A8B: 7E 74                                           jle 0x76
0x405A8D: A1 30 C0 40 00                                  mov eax, dword ptr [0x40c030]
0x405A92: A3 28 C0 40 00                                  mov dword ptr [0x40c028], eax
0x405A97: A1 04 80 40 00                                  mov eax, dword ptr [0x408004]
0x405A9C: 83 E8 04                                        sub eax, 0x4
0x405A9F: A3 04 80 40 00                                  mov dword ptr [0x408004], eax
0x405AA4: 8B 95 C0 FB FF FF                               mov edx, dword ptr [ebp-0x440]
0x405AAA: 8B 85 BC FB FF FF                               mov eax, dword ptr [ebp-0x444]
0x405AB0: 01 D0                                           add eax, edx
0x405AB2: 89 85 B8 FB FF FF                               mov dword ptr [ebp-0x448], eax
0x405AB8: A1 00 C0 40 00                                  mov eax, dword ptr [0x40c000]
0x405ABD: 8B 95 C0 FB FF FF                               mov edx, dword ptr [ebp-0x440]
0x405AC3: 89 14 85 04 C0 40 00                            mov dword ptr [eax*4+0x40c004], edx
0x405ACA: A1 00 C0 40 00                                  mov eax, dword ptr [0x40c000]
0x405ACF: 8D 50 01                                        lea edx, ptr [eax+0x1]
0x405AD2: 8B 85 BC FB FF FF                               mov eax, dword ptr [ebp-0x444]
0x405AD8: 89 04 95 04 C0 40 00                            mov dword ptr [edx*4+0x40c004], eax
0x405ADF: A1 00 C0 40 00                                  mov eax, dword ptr [0x40c000]
0x405AE4: 8D 50 02                                        lea edx, ptr [eax+0x2]
0x405AE7: 8B 85 B8 FB FF FF                               mov eax, dword ptr [ebp-0x448]
0x405AED: 89 04 95 04 C0 40 00                            mov dword ptr [edx*4+0x40c004], eax
0x405AF4: A1 00 C0 40 00                                  mov eax, dword ptr [0x40c000]
0x405AF9: 83 C0 03                                        add eax, 0x3
0x405AFC: A3 00 C0 40 00                                  mov dword ptr [0x40c000], eax
0x405B01: A1 04 80 40 00                                  mov eax, dword ptr [0x408004]
0x405B06: 83 F8 04                                        cmp eax, 0x4
0x405B09: 0F 8E C5 00 00 00                               jle 0xcb
0x405B0F: A1 00 C0 40 00                                  mov eax, dword ptr [0x40c000]
0x405B14: 83 C0 03                                        add eax, 0x3
0x405B17: 83 F8 06                                        cmp eax, 0x6
0x405B1A: 0F 8F B4 00 00 00                               jnle 0xba
0x405B20: 8B 15 2C C0 40 00                               mov edx, dword ptr [0x40c02c]
0x405B26: A1 38 C0 40 00                                  mov eax, dword ptr [0x40c038]
0x405B2B: 39 C2                                           cmp edx, eax
0x405B2D: 0F 85 A1 00 00 00                               jnz 0xa7
0x405B33: 8B 15 2C C0 40 00                               mov edx, dword ptr [0x40c02c]
0x405B39: A1 30 C0 40 00                                  mov eax, dword ptr [0x40c030]
0x405B3E: 39 C2                                           cmp edx, eax
0x405B40: 0F 85 8E 00 00 00                               jnz 0x94
0x405B46: A1 34 C0 40 00                                  mov eax, dword ptr [0x40c034]
0x405B4B: 89 85 B4 FB FF FF                               mov dword ptr [ebp-0x44c], eax
0x405B51: A1 2C C0 40 00                                  mov eax, dword ptr [0x40c02c]
0x405B56: 89 85 B0 FB FF FF                               mov dword ptr [ebp-0x450], eax
0x405B5C: 8B 85 B0 FB FF FF                               mov eax, dword ptr [ebp-0x450]
0x405B62: 3B 85 B4 FB FF FF                               cmp eax, dword ptr [ebp-0x44c]
0x405B68: 7E 6A                                           jle 0x6c
0x405B6A: A1 04 80 40 00                                  mov eax, dword ptr [0x408004]
0x405B6F: 83 E8 04                                        sub eax, 0x4
0x405B72: A3 04 80 40 00                                  mov dword ptr [0x408004], eax
0x405B77: 8B 95 B4 FB FF FF                               mov edx, dword ptr [ebp-0x44c]
0x405B7D: 8B 85 B0 FB FF FF                               mov eax, dword ptr [ebp-0x450]
0x405B83: 01 D0                                           add eax, edx
0x405B85: 89 85 AC FB FF FF                               mov dword ptr [ebp-0x454], eax
0x405B8B: A1 00 C0 40 00                                  mov eax, dword ptr [0x40c000]
0x405B90: 8B 95 B4 FB FF FF                               mov edx, dword ptr [ebp-0x44c]
0x405B96: 89 14 85 04 C0 40 00                            mov dword ptr [eax*4+0x40c004], edx
0x405B9D: A1 00 C0 40 00                                  mov eax, dword ptr [0x40c000]
0x405BA2: 8D 50 01                                        lea edx, ptr [eax+0x1]
0x405BA5: 8B 85 B0 FB FF FF                               mov eax, dword ptr [ebp-0x450]
0x405BAB: 89 04 95 04 C0 40 00                            mov dword ptr [edx*4+0x40c004], eax
0x405BB2: A1 00 C0 40 00                                  mov eax, dword ptr [0x40c000]
0x405BB7: 8D 50 02                                        lea edx, ptr [eax+0x2]
0x405BBA: 8B 85 AC FB FF FF                               mov eax, dword ptr [ebp-0x454]
0x405BC0: 89 04 95 04 C0 40 00                            mov dword ptr [edx*4+0x40c004], eax
0x405BC7: A1 00 C0 40 00                                  mov eax, dword ptr [0x40c000]
0x405BCC: 83 C0 03                                        add eax, 0x3
0x405BCF: A3 00 C0 40 00                                  mov dword ptr [0x40c000], eax
0x405BD4: A1 04 80 40 00                                  mov eax, dword ptr [0x408004]
0x405BD9: 83 F8 04                                        cmp eax, 0x4
0x405BDC: 0F 8E CF 00 00 00                               jle 0xd5
0x405BE2: A1 00 C0 40 00                                  mov eax, dword ptr [0x40c000]
0x405BE7: 83 C0 03                                        add eax, 0x3
0x405BEA: 83 F8 06                                        cmp eax, 0x6
0x405BED: 0F 8F BE 00 00 00                               jnle 0xc4
0x405BF3: 8B 15 30 C0 40 00                               mov edx, dword ptr [0x40c030]
0x405BF9: A1 28 C0 40 00                                  mov eax, dword ptr [0x40c028]
0x405BFE: 39 C2                                           cmp edx, eax
0x405C00: 0F 85 AB 00 00 00                               jnz 0xb1
0x405C06: 8B 15 30 C0 40 00                               mov edx, dword ptr [0x40c030]
0x405C0C: A1 38 C0 40 00                                  mov eax, dword ptr [0x40c038]
0x405C11: 39 C2                                           cmp edx, eax
0x405C13: 0F 85 98 00 00 00                               jnz 0x9e
0x405C19: A1 34 C0 40 00                                  mov eax, dword ptr [0x40c034]
0x405C1E: 89 85 A8 FB FF FF                               mov dword ptr [ebp-0x458], eax
0x405C24: A1 30 C0 40 00                                  mov eax, dword ptr [0x40c030]
0x405C29: 89 85 A4 FB FF FF                               mov dword ptr [ebp-0x45c], eax
0x405C2F: 8B 85 A4 FB FF FF                               mov eax, dword ptr [ebp-0x45c]
0x405C35: 3B 85 A8 FB FF FF                               cmp eax, dword ptr [ebp-0x458]
0x405C3B: 7E 74                                           jle 0x76
0x405C3D: A1 2C C0 40 00                                  mov eax, dword ptr [0x40c02c]
0x405C42: A3 28 C0 40 00                                  mov dword ptr [0x40c028], eax
0x405C47: A1 04 80 40 00                                  mov eax, dword ptr [0x408004]
0x405C4C: 83 E8 04                                        sub eax, 0x4
0x405C4F: A3 04 80 40 00                                  mov dword ptr [0x408004], eax
0x405C54: 8B 95 A8 FB FF FF                               mov edx, dword ptr [ebp-0x458]
0x405C5A: 8B 85 A4 FB FF FF                               mov eax, dword ptr [ebp-0x45c]
0x405C60: 01 D0                                           add eax, edx
0x405C62: 89 85 A0 FB FF FF                               mov dword ptr [ebp-0x460], eax
0x405C68: A1 00 C0 40 00                                  mov eax, dword ptr [0x40c000]
0x405C6D: 8B 95 A8 FB FF FF                               mov edx, dword ptr [ebp-0x458]
0x405C73: 89 14 85 04 C0 40 00                            mov dword ptr [eax*4+0x40c004], edx
0x405C7A: A1 00 C0 40 00                                  mov eax, dword ptr [0x40c000]
0x405C7F: 8D 50 01                                        lea edx, ptr [eax+0x1]
0x405C82: 8B 85 A4 FB FF FF                               mov eax, dword ptr [ebp-0x45c]
0x405C88: 89 04 95 04 C0 40 00                            mov dword ptr [edx*4+0x40c004], eax
0x405C8F: A1 00 C0 40 00                                  mov eax, dword ptr [0x40c000]
0x405C94: 8D 50 02                                        lea edx, ptr [eax+0x2]
0x405C97: 8B 85 A0 FB FF FF                               mov eax, dword ptr [ebp-0x460]
0x405C9D: 89 04 95 04 C0 40 00                            mov dword ptr [edx*4+0x40c004], eax
0x405CA4: A1 00 C0 40 00                                  mov eax, dword ptr [0x40c000]
0x405CA9: 83 C0 03                                        add eax, 0x3
0x405CAC: A3 00 C0 40 00                                  mov dword ptr [0x40c000], eax
0x405CB1: A1 04 80 40 00                                  mov eax, dword ptr [0x408004]
0x405CB6: 83 F8 04                                        cmp eax, 0x4
0x405CB9: 0F 8E C5 00 00 00                               jle 0xcb
0x405CBF: A1 00 C0 40 00                                  mov eax, dword ptr [0x40c000]
0x405CC4: 83 C0 03                                        add eax, 0x3
0x405CC7: 83 F8 06                                        cmp eax, 0x6
0x405CCA: 0F 8F B4 00 00 00                               jnle 0xba
0x405CD0: 8B 15 30 C0 40 00                               mov edx, dword ptr [0x40c030]
0x405CD6: A1 2C C0 40 00                                  mov eax, dword ptr [0x40c02c]
0x405CDB: 39 C2                                           cmp edx, eax
0x405CDD: 0F 85 A1 00 00 00                               jnz 0xa7
0x405CE3: 8B 15 30 C0 40 00                               mov edx, dword ptr [0x40c030]
0x405CE9: A1 38 C0 40 00                                  mov eax, dword ptr [0x40c038]
0x405CEE: 39 C2                                           cmp edx, eax
0x405CF0: 0F 85 8E 00 00 00                               jnz 0x94
0x405CF6: A1 34 C0 40 00                                  mov eax, dword ptr [0x40c034]
0x405CFB: 89 85 9C FB FF FF                               mov dword ptr [ebp-0x464], eax
0x405D01: A1 30 C0 40 00                                  mov eax, dword ptr [0x40c030]
0x405D06: 89 85 98 FB FF FF                               mov dword ptr [ebp-0x468], eax
0x405D0C: 8B 85 98 FB FF FF                               mov eax, dword ptr [ebp-0x468]
0x405D12: 3B 85 9C FB FF FF                               cmp eax, dword ptr [ebp-0x464]
0x405D18: 7E 6A                                           jle 0x6c
0x405D1A: A1 04 80 40 00                                  mov eax, dword ptr [0x408004]
0x405D1F: 83 E8 04                                        sub eax, 0x4
0x405D22: A3 04 80 40 00                                  mov dword ptr [0x408004], eax
0x405D27: 8B 95 9C FB FF FF                               mov edx, dword ptr [ebp-0x464]
0x405D2D: 8B 85 98 FB FF FF                               mov eax, dword ptr [ebp-0x468]
0x405D33: 01 D0                                           add eax, edx
0x405D35: 89 85 94 FB FF FF                               mov dword ptr [ebp-0x46c], eax
0x405D3B: A1 00 C0 40 00                                  mov eax, dword ptr [0x40c000]
0x405D40: 8B 95 9C FB FF FF                               mov edx, dword ptr [ebp-0x464]
0x405D46: 89 14 85 04 C0 40 00                            mov dword ptr [eax*4+0x40c004], edx
0x405D4D: A1 00 C0 40 00                                  mov eax, dword ptr [0x40c000]
0x405D52: 8D 50 01                                        lea edx, ptr [eax+0x1]
0x405D55: 8B 85 98 FB FF FF                               mov eax, dword ptr [ebp-0x468]
0x405D5B: 89 04 95 04 C0 40 00                            mov dword ptr [edx*4+0x40c004], eax
0x405D62: A1 00 C0 40 00                                  mov eax, dword ptr [0x40c000]
0x405D67: 8D 50 02                                        lea edx, ptr [eax+0x2]
0x405D6A: 8B 85 94 FB FF FF                               mov eax, dword ptr [ebp-0x46c]
0x405D70: 89 04 95 04 C0 40 00                            mov dword ptr [edx*4+0x40c004], eax
0x405D77: A1 00 C0 40 00                                  mov eax, dword ptr [0x40c000]
0x405D7C: 83 C0 03                                        add eax, 0x3
0x405D7F: A3 00 C0 40 00                                  mov dword ptr [0x40c000], eax
0x405D84: A1 04 80 40 00                                  mov eax, dword ptr [0x408004]
0x405D89: 83 F8 04                                        cmp eax, 0x4
0x405D8C: 0F 8E CF 00 00 00                               jle 0xd5
0x405D92: A1 00 C0 40 00                                  mov eax, dword ptr [0x40c000]
0x405D97: 83 C0 03                                        add eax, 0x3
0x405D9A: 83 F8 06                                        cmp eax, 0x6
0x405D9D: 0F 8F BE 00 00 00                               jnle 0xc4
0x405DA3: 8B 15 30 C0 40 00                               mov edx, dword ptr [0x40c030]
0x405DA9: A1 38 C0 40 00                                  mov eax, dword ptr [0x40c038]
0x405DAE: 39 C2                                           cmp edx, eax
0x405DB0: 0F 85 AB 00 00 00                               jnz 0xb1
0x405DB6: 8B 15 30 C0 40 00                               mov edx, dword ptr [0x40c030]
0x405DBC: A1 28 C0 40 00                                  mov eax, dword ptr [0x40c028]
0x405DC1: 39 C2                                           cmp edx, eax
0x405DC3: 0F 85 98 00 00 00                               jnz 0x9e
0x405DC9: A1 34 C0 40 00                                  mov eax, dword ptr [0x40c034]
0x405DCE: 89 85 90 FB FF FF                               mov dword ptr [ebp-0x470], eax
0x405DD4: A1 30 C0 40 00                                  mov eax, dword ptr [0x40c030]
0x405DD9: 89 85 8C FB FF FF                               mov dword ptr [ebp-0x474], eax
0x405DDF: 8B 85 8C FB FF FF                               mov eax, dword ptr [ebp-0x474]
0x405DE5: 3B 85 90 FB FF FF                               cmp eax, dword ptr [ebp-0x470]
0x405DEB: 7E 74                                           jle 0x76
0x405DED: A1 2C C0 40 00                                  mov eax, dword ptr [0x40c02c]
0x405DF2: A3 28 C0 40 00                                  mov dword ptr [0x40c028], eax
0x405DF7: A1 04 80 40 00                                  mov eax, dword ptr [0x408004]
0x405DFC: 83 E8 04                                        sub eax, 0x4
0x405DFF: A3 04 80 40 00                                  mov dword ptr [0x408004], eax
0x405E04: 8B 95 90 FB FF FF                               mov edx, dword ptr [ebp-0x470]
0x405E0A: 8B 85 8C FB FF FF                               mov eax, dword ptr [ebp-0x474]
0x405E10: 01 D0                                           add eax, edx
0x405E12: 89 85 88 FB FF FF                               mov dword ptr [ebp-0x478], eax
0x405E18: A1 00 C0 40 00                                  mov eax, dword ptr [0x40c000]
0x405E1D: 8B 95 90 FB FF FF                               mov edx, dword ptr [ebp-0x470]
0x405E23: 89 14 85 04 C0 40 00                            mov dword ptr [eax*4+0x40c004], edx
0x405E2A: A1 00 C0 40 00                                  mov eax, dword ptr [0x40c000]
0x405E2F: 8D 50 01                                        lea edx, ptr [eax+0x1]
0x405E32: 8B 85 8C FB FF FF                               mov eax, dword ptr [ebp-0x474]
0x405E38: 89 04 95 04 C0 40 00                            mov dword ptr [edx*4+0x40c004], eax
0x405E3F: A1 00 C0 40 00                                  mov eax, dword ptr [0x40c000]
0x405E44: 8D 50 02                                        lea edx, ptr [eax+0x2]
0x405E47: 8B 85 88 FB FF FF                               mov eax, dword ptr [ebp-0x478]
0x405E4D: 89 04 95 04 C0 40 00                            mov dword ptr [edx*4+0x40c004], eax
0x405E54: A1 00 C0 40 00                                  mov eax, dword ptr [0x40c000]
0x405E59: 83 C0 03                                        add eax, 0x3
0x405E5C: A3 00 C0 40 00                                  mov dword ptr [0x40c000], eax
0x405E61: A1 04 80 40 00                                  mov eax, dword ptr [0x408004]
0x405E66: 83 F8 04                                        cmp eax, 0x4
0x405E69: 0F 8E C5 00 00 00                               jle 0xcb
0x405E6F: A1 00 C0 40 00                                  mov eax, dword ptr [0x40c000]
0x405E74: 83 C0 03                                        add eax, 0x3
0x405E77: 83 F8 06                                        cmp eax, 0x6
0x405E7A: 0F 8F B4 00 00 00                               jnle 0xba
0x405E80: 8B 15 30 C0 40 00                               mov edx, dword ptr [0x40c030]
0x405E86: A1 38 C0 40 00                                  mov eax, dword ptr [0x40c038]
0x405E8B: 39 C2                                           cmp edx, eax
0x405E8D: 0F 85 A1 00 00 00                               jnz 0xa7
0x405E93: 8B 15 30 C0 40 00                               mov edx, dword ptr [0x40c030]
0x405E99: A1 2C C0 40 00                                  mov eax, dword ptr [0x40c02c]
0x405E9E: 39 C2                                           cmp edx, eax
0x405EA0: 0F 85 8E 00 00 00                               jnz 0x94
0x405EA6: A1 34 C0 40 00                                  mov eax, dword ptr [0x40c034]
0x405EAB: 89 85 84 FB FF FF                               mov dword ptr [ebp-0x47c], eax
0x405EB1: A1 30 C0 40 00                                  mov eax, dword ptr [0x40c030]
0x405EB6: 89 85 80 FB FF FF                               mov dword ptr [ebp-0x480], eax
0x405EBC: 8B 85 80 FB FF FF                               mov eax, dword ptr [ebp-0x480]
0x405EC2: 3B 85 84 FB FF FF                               cmp eax, dword ptr [ebp-0x47c]
0x405EC8: 7E 6A                                           jle 0x6c
0x405ECA: A1 04 80 40 00                                  mov eax, dword ptr [0x408004]
0x405ECF: 83 E8 04                                        sub eax, 0x4
0x405ED2: A3 04 80 40 00                                  mov dword ptr [0x408004], eax
0x405ED7: 8B 95 84 FB FF FF                               mov edx, dword ptr [ebp-0x47c]
0x405EDD: 8B 85 80 FB FF FF                               mov eax, dword ptr [ebp-0x480]
0x405EE3: 01 D0                                           add eax, edx
0x405EE5: 89 85 7C FB FF FF                               mov dword ptr [ebp-0x484], eax
0x405EEB: A1 00 C0 40 00                                  mov eax, dword ptr [0x40c000]
0x405EF0: 8B 95 84 FB FF FF                               mov edx, dword ptr [ebp-0x47c]
0x405EF6: 89 14 85 04 C0 40 00                            mov dword ptr [eax*4+0x40c004], edx
0x405EFD: A1 00 C0 40 00                                  mov eax, dword ptr [0x40c000]
0x405F02: 8D 50 01                                        lea edx, ptr [eax+0x1]
0x405F05: 8B 85 80 FB FF FF                               mov eax, dword ptr [ebp-0x480]
0x405F0B: 89 04 95 04 C0 40 00                            mov dword ptr [edx*4+0x40c004], eax
0x405F12: A1 00 C0 40 00                                  mov eax, dword ptr [0x40c000]
0x405F17: 8D 50 02                                        lea edx, ptr [eax+0x2]
0x405F1A: 8B 85 7C FB FF FF                               mov eax, dword ptr [ebp-0x484]
0x405F20: 89 04 95 04 C0 40 00                            mov dword ptr [edx*4+0x40c004], eax
0x405F27: A1 00 C0 40 00                                  mov eax, dword ptr [0x40c000]
0x405F2C: 83 C0 03                                        add eax, 0x3
0x405F2F: A3 00 C0 40 00                                  mov dword ptr [0x40c000], eax
0x405F34: A1 04 80 40 00                                  mov eax, dword ptr [0x408004]
0x405F39: 83 F8 04                                        cmp eax, 0x4
0x405F3C: 0F 8E CF 00 00 00                               jle 0xd5
0x405F42: A1 00 C0 40 00                                  mov eax, dword ptr [0x40c000]
0x405F47: 83 C0 03                                        add eax, 0x3
0x405F4A: 83 F8 06                                        cmp eax, 0x6
0x405F4D: 0F 8F BE 00 00 00                               jnle 0xc4
0x405F53: 8B 15 38 C0 40 00                               mov edx, dword ptr [0x40c038]
0x405F59: A1 28 C0 40 00                                  mov eax, dword ptr [0x40c028]
0x405F5E: 39 C2                                           cmp edx, eax
0x405F60: 0F 85 AB 00 00 00                               jnz 0xb1
0x405F66: 8B 15 38 C0 40 00                               mov edx, dword ptr [0x40c038]
0x405F6C: A1 2C C0 40 00                                  mov eax, dword ptr [0x40c02c]
0x405F71: 39 C2                                           cmp edx, eax
0x405F73: 0F 85 98 00 00 00                               jnz 0x9e
0x405F79: A1 34 C0 40 00                                  mov eax, dword ptr [0x40c034]
0x405F7E: 89 85 78 FB FF FF                               mov dword ptr [ebp-0x488], eax
0x405F84: A1 38 C0 40 00                                  mov eax, dword ptr [0x40c038]
0x405F89: 89 85 74 FB FF FF                               mov dword ptr [ebp-0x48c], eax
0x405F8F: 8B 85 74 FB FF FF                               mov eax, dword ptr [ebp-0x48c]
0x405F95: 3B 85 78 FB FF FF                               cmp eax, dword ptr [ebp-0x488]
0x405F9B: 7E 74                                           jle 0x76
0x405F9D: A1 30 C0 40 00                                  mov eax, dword ptr [0x40c030]
0x405FA2: A3 28 C0 40 00                                  mov dword ptr [0x40c028], eax
0x405FA7: A1 04 80 40 00                                  mov eax, dword ptr [0x408004]
0x405FAC: 83 E8 04                                        sub eax, 0x4
0x405FAF: A3 04 80 40 00                                  mov dword ptr [0x408004], eax
0x405FB4: 8B 95 78 FB FF FF                               mov edx, dword ptr [ebp-0x488]
0x405FBA: 8B 85 74 FB FF FF                               mov eax, dword ptr [ebp-0x48c]
0x405FC0: 01 D0                                           add eax, edx
0x405FC2: 89 85 70 FB FF FF                               mov dword ptr [ebp-0x490], eax
0x405FC8: A1 00 C0 40 00                                  mov eax, dword ptr [0x40c000]
0x405FCD: 8B 95 78 FB FF FF                               mov edx, dword ptr [ebp-0x488]
0x405FD3: 89 14 85 04 C0 40 00                            mov dword ptr [eax*4+0x40c004], edx
0x405FDA: A1 00 C0 40 00                                  mov eax, dword ptr [0x40c000]
0x405FDF: 8D 50 01                                        lea edx, ptr [eax+0x1]
0x405FE2: 8B 85 74 FB FF FF                               mov eax, dword ptr [ebp-0x48c]
0x405FE8: 89 04 95 04 C0 40 00                            mov dword ptr [edx*4+0x40c004], eax
0x405FEF: A1 00 C0 40 00                                  mov eax, dword ptr [0x40c000]
0x405FF4: 8D 50 02                                        lea edx, ptr [eax+0x2]
0x405FF7: 8B 85 70 FB FF FF                               mov eax, dword ptr [ebp-0x490]
0x405FFD: 89 04 95 04 C0 40 00                            mov dword ptr [edx*4+0x40c004], eax
0x406004: A1 00 C0 40 00                                  mov eax, dword ptr [0x40c000]
0x406009: 83 C0 03                                        add eax, 0x3
0x40600C: A3 00 C0 40 00                                  mov dword ptr [0x40c000], eax
0x406011: A1 04 80 40 00                                  mov eax, dword ptr [0x408004]
0x406016: 83 F8 04                                        cmp eax, 0x4
0x406019: 0F 8E CF 00 00 00                               jle 0xd5
0x40601F: A1 00 C0 40 00                                  mov eax, dword ptr [0x40c000]
0x406024: 83 C0 03                                        add eax, 0x3
0x406027: 83 F8 06                                        cmp eax, 0x6
0x40602A: 0F 8F BE 00 00 00                               jnle 0xc4
0x406030: 8B 15 38 C0 40 00                               mov edx, dword ptr [0x40c038]
0x406036: A1 28 C0 40 00                                  mov eax, dword ptr [0x40c028]
0x40603B: 39 C2                                           cmp edx, eax
0x40603D: 0F 85 AB 00 00 00                               jnz 0xb1
0x406043: 8B 15 38 C0 40 00                               mov edx, dword ptr [0x40c038]
0x406049: A1 30 C0 40 00                                  mov eax, dword ptr [0x40c030]
0x40604E: 39 C2                                           cmp edx, eax
0x406050: 0F 85 98 00 00 00                               jnz 0x9e
0x406056: A1 34 C0 40 00                                  mov eax, dword ptr [0x40c034]
0x40605B: 89 85 6C FB FF FF                               mov dword ptr [ebp-0x494], eax
0x406061: A1 38 C0 40 00                                  mov eax, dword ptr [0x40c038]
0x406066: 89 85 68 FB FF FF                               mov dword ptr [ebp-0x498], eax
0x40606C: 8B 85 68 FB FF FF                               mov eax, dword ptr [ebp-0x498]
0x406072: 3B 85 6C FB FF FF                               cmp eax, dword ptr [ebp-0x494]
0x406078: 7E 74                                           jle 0x76
0x40607A: A1 2C C0 40 00                                  mov eax, dword ptr [0x40c02c]
0x40607F: A3 28 C0 40 00                                  mov dword ptr [0x40c028], eax
0x406084: A1 04 80 40 00                                  mov eax, dword ptr [0x408004]
0x406089: 83 E8 04                                        sub eax, 0x4
0x40608C: A3 04 80 40 00                                  mov dword ptr [0x408004], eax
0x406091: 8B 95 6C FB FF FF                               mov edx, dword ptr [ebp-0x494]
0x406097: 8B 85 68 FB FF FF                               mov eax, dword ptr [ebp-0x498]
0x40609D: 01 D0                                           add eax, edx
0x40609F: 89 85 64 FB FF FF                               mov dword ptr [ebp-0x49c], eax
0x4060A5: A1 00 C0 40 00                                  mov eax, dword ptr [0x40c000]
0x4060AA: 8B 95 6C FB FF FF                               mov edx, dword ptr [ebp-0x494]
0x4060B0: 89 14 85 04 C0 40 00                            mov dword ptr [eax*4+0x40c004], edx
0x4060B7: A1 00 C0 40 00                                  mov eax, dword ptr [0x40c000]
0x4060BC: 8D 50 01                                        lea edx, ptr [eax+0x1]
0x4060BF: 8B 85 68 FB FF FF                               mov eax, dword ptr [ebp-0x498]
0x4060C5: 89 04 95 04 C0 40 00                            mov dword ptr [edx*4+0x40c004], eax
0x4060CC: A1 00 C0 40 00                                  mov eax, dword ptr [0x40c000]
0x4060D1: 8D 50 02                                        lea edx, ptr [eax+0x2]
0x4060D4: 8B 85 64 FB FF FF                               mov eax, dword ptr [ebp-0x49c]
0x4060DA: 89 04 95 04 C0 40 00                            mov dword ptr [edx*4+0x40c004], eax
0x4060E1: A1 00 C0 40 00                                  mov eax, dword ptr [0x40c000]
0x4060E6: 83 C0 03                                        add eax, 0x3
0x4060E9: A3 00 C0 40 00                                  mov dword ptr [0x40c000], eax
0x4060EE: A1 04 80 40 00                                  mov eax, dword ptr [0x408004]
0x4060F3: 83 F8 04                                        cmp eax, 0x4
0x4060F6: 0F 8E CF 00 00 00                               jle 0xd5
0x4060FC: A1 00 C0 40 00                                  mov eax, dword ptr [0x40c000]
0x406101: 83 C0 03                                        add eax, 0x3
0x406104: 83 F8 06                                        cmp eax, 0x6
0x406107: 0F 8F BE 00 00 00                               jnle 0xc4
0x40610D: 8B 15 38 C0 40 00                               mov edx, dword ptr [0x40c038]
0x406113: A1 2C C0 40 00                                  mov eax, dword ptr [0x40c02c]
0x406118: 39 C2                                           cmp edx, eax
0x40611A: 0F 85 AB 00 00 00                               jnz 0xb1
0x406120: 8B 15 38 C0 40 00                               mov edx, dword ptr [0x40c038]
0x406126: A1 28 C0 40 00                                  mov eax, dword ptr [0x40c028]
0x40612B: 39 C2                                           cmp edx, eax
0x40612D: 0F 85 98 00 00 00                               jnz 0x9e
0x406133: A1 34 C0 40 00                                  mov eax, dword ptr [0x40c034]
0x406138: 89 85 60 FB FF FF                               mov dword ptr [ebp-0x4a0], eax
0x40613E: A1 38 C0 40 00                                  mov eax, dword ptr [0x40c038]
0x406143: 89 85 5C FB FF FF                               mov dword ptr [ebp-0x4a4], eax
0x406149: 8B 85 5C FB FF FF                               mov eax, dword ptr [ebp-0x4a4]
0x40614F: 3B 85 60 FB FF FF                               cmp eax, dword ptr [ebp-0x4a0]
0x406155: 7E 74                                           jle 0x76
0x406157: A1 30 C0 40 00                                  mov eax, dword ptr [0x40c030]
0x40615C: A3 28 C0 40 00                                  mov dword ptr [0x40c028], eax
0x406161: A1 04 80 40 00                                  mov eax, dword ptr [0x408004]
0x406166: 83 E8 04                                        sub eax, 0x4
0x406169: A3 04 80 40 00                                  mov dword ptr [0x408004], eax
0x40616E: 8B 95 60 FB FF FF                               mov edx, dword ptr [ebp-0x4a0]
0x406174: 8B 85 5C FB FF FF                               mov eax, dword ptr [ebp-0x4a4]
0x40617A: 01 D0                                           add eax, edx
0x40617C: 89 85 58 FB FF FF                               mov dword ptr [ebp-0x4a8], eax
0x406182: A1 00 C0 40 00                                  mov eax, dword ptr [0x40c000]
0x406187: 8B 95 60 FB FF FF                               mov edx, dword ptr [ebp-0x4a0]
0x40618D: 89 14 85 04 C0 40 00                            mov dword ptr [eax*4+0x40c004], edx
0x406194: A1 00 C0 40 00                                  mov eax, dword ptr [0x40c000]
0x406199: 8D 50 01                                        lea edx, ptr [eax+0x1]
0x40619C: 8B 85 5C FB FF FF                               mov eax, dword ptr [ebp-0x4a4]
0x4061A2: 89 04 95 04 C0 40 00                            mov dword ptr [edx*4+0x40c004], eax
0x4061A9: A1 00 C0 40 00                                  mov eax, dword ptr [0x40c000]
0x4061AE: 8D 50 02                                        lea edx, ptr [eax+0x2]
0x4061B1: 8B 85 58 FB FF FF                               mov eax, dword ptr [ebp-0x4a8]
0x4061B7: 89 04 95 04 C0 40 00                            mov dword ptr [edx*4+0x40c004], eax
0x4061BE: A1 00 C0 40 00                                  mov eax, dword ptr [0x40c000]
0x4061C3: 83 C0 03                                        add eax, 0x3
0x4061C6: A3 00 C0 40 00                                  mov dword ptr [0x40c000], eax
0x4061CB: A1 04 80 40 00                                  mov eax, dword ptr [0x408004]
0x4061D0: 83 F8 04                                        cmp eax, 0x4
0x4061D3: 0F 8E C5 00 00 00                               jle 0xcb
0x4061D9: A1 00 C0 40 00                                  mov eax, dword ptr [0x40c000]
0x4061DE: 83 C0 03                                        add eax, 0x3
0x4061E1: 83 F8 06                                        cmp eax, 0x6
0x4061E4: 0F 8F B4 00 00 00                               jnle 0xba
0x4061EA: 8B 15 38 C0 40 00                               mov edx, dword ptr [0x40c038]
0x4061F0: A1 2C C0 40 00                                  mov eax, dword ptr [0x40c02c]
0x4061F5: 39 C2                                           cmp edx, eax
0x4061F7: 0F 85 A1 00 00 00                               jnz 0xa7
0x4061FD: 8B 15 38 C0 40 00                               mov edx, dword ptr [0x40c038]
0x406203: A1 30 C0 40 00                                  mov eax, dword ptr [0x40c030]
0x406208: 39 C2                                           cmp edx, eax
0x40620A: 0F 85 8E 00 00 00                               jnz 0x94
0x406210: A1 34 C0 40 00                                  mov eax, dword ptr [0x40c034]
0x406215: 89 85 54 FB FF FF                               mov dword ptr [ebp-0x4ac], eax
0x40621B: A1 38 C0 40 00                                  mov eax, dword ptr [0x40c038]
0x406220: 89 85 50 FB FF FF                               mov dword ptr [ebp-0x4b0], eax
0x406226: 8B 85 50 FB FF FF                               mov eax, dword ptr [ebp-0x4b0]
0x40622C: 3B 85 54 FB FF FF                               cmp eax, dword ptr [ebp-0x4ac]
0x406232: 7E 6A                                           jle 0x6c
0x406234: A1 04 80 40 00                                  mov eax, dword ptr [0x408004]
0x406239: 83 E8 04                                        sub eax, 0x4
0x40623C: A3 04 80 40 00                                  mov dword ptr [0x408004], eax
0x406241: 8B 95 54 FB FF FF                               mov edx, dword ptr [ebp-0x4ac]
0x406247: 8B 85 50 FB FF FF                               mov eax, dword ptr [ebp-0x4b0]
0x40624D: 01 D0                                           add eax, edx
0x40624F: 89 85 4C FB FF FF                               mov dword ptr [ebp-0x4b4], eax
0x406255: A1 00 C0 40 00                                  mov eax, dword ptr [0x40c000]
0x40625A: 8B 95 54 FB FF FF                               mov edx, dword ptr [ebp-0x4ac]
0x406260: 89 14 85 04 C0 40 00                            mov dword ptr [eax*4+0x40c004], edx
0x406267: A1 00 C0 40 00                                  mov eax, dword ptr [0x40c000]
0x40626C: 8D 50 01                                        lea edx, ptr [eax+0x1]
0x40626F: 8B 85 50 FB FF FF                               mov eax, dword ptr [ebp-0x4b0]
0x406275: 89 04 95 04 C0 40 00                            mov dword ptr [edx*4+0x40c004], eax
0x40627C: A1 00 C0 40 00                                  mov eax, dword ptr [0x40c000]
0x406281: 8D 50 02                                        lea edx, ptr [eax+0x2]
0x406284: 8B 85 4C FB FF FF                               mov eax, dword ptr [ebp-0x4b4]
0x40628A: 89 04 95 04 C0 40 00                            mov dword ptr [edx*4+0x40c004], eax
0x406291: A1 00 C0 40 00                                  mov eax, dword ptr [0x40c000]
0x406296: 83 C0 03                                        add eax, 0x3
0x406299: A3 00 C0 40 00                                  mov dword ptr [0x40c000], eax
0x40629E: A1 04 80 40 00                                  mov eax, dword ptr [0x408004]
0x4062A3: 83 F8 04                                        cmp eax, 0x4
0x4062A6: 0F 8E CF 00 00 00                               jle 0xd5
0x4062AC: A1 00 C0 40 00                                  mov eax, dword ptr [0x40c000]
0x4062B1: 83 C0 03                                        add eax, 0x3
0x4062B4: 83 F8 06                                        cmp eax, 0x6
0x4062B7: 0F 8F BE 00 00 00                               jnle 0xc4
0x4062BD: 8B 15 38 C0 40 00                               mov edx, dword ptr [0x40c038]
0x4062C3: A1 30 C0 40 00                                  mov eax, dword ptr [0x40c030]
0x4062C8: 39 C2                                           cmp edx, eax
0x4062CA: 0F 85 AB 00 00 00                               jnz 0xb1
0x4062D0: 8B 15 38 C0 40 00                               mov edx, dword ptr [0x40c038]
0x4062D6: A1 28 C0 40 00                                  mov eax, dword ptr [0x40c028]
0x4062DB: 39 C2                                           cmp edx, eax
0x4062DD: 0F 85 98 00 00 00                               jnz 0x9e
0x4062E3: A1 34 C0 40 00                                  mov eax, dword ptr [0x40c034]
0x4062E8: 89 85 48 FB FF FF                               mov dword ptr [ebp-0x4b8], eax
0x4062EE: A1 38 C0 40 00                                  mov eax, dword ptr [0x40c038]
0x4062F3: 89 85 44 FB FF FF                               mov dword ptr [ebp-0x4bc], eax
0x4062F9: 8B 85 44 FB FF FF                               mov eax, dword ptr [ebp-0x4bc]
0x4062FF: 3B 85 48 FB FF FF                               cmp eax, dword ptr [ebp-0x4b8]
0x406305: 7E 74                                           jle 0x76
0x406307: A1 2C C0 40 00                                  mov eax, dword ptr [0x40c02c]
0x40630C: A3 28 C0 40 00                                  mov dword ptr [0x40c028], eax
0x406311: A1 04 80 40 00                                  mov eax, dword ptr [0x408004]
0x406316: 83 E8 04                                        sub eax, 0x4
0x406319: A3 04 80 40 00                                  mov dword ptr [0x408004], eax
0x40631E: 8B 95 48 FB FF FF                               mov edx, dword ptr [ebp-0x4b8]
0x406324: 8B 85 44 FB FF FF                               mov eax, dword ptr [ebp-0x4bc]
0x40632A: 01 D0                                           add eax, edx
0x40632C: 89 85 40 FB FF FF                               mov dword ptr [ebp-0x4c0], eax
0x406332: A1 00 C0 40 00                                  mov eax, dword ptr [0x40c000]
0x406337: 8B 95 48 FB FF FF                               mov edx, dword ptr [ebp-0x4b8]
0x40633D: 89 14 85 04 C0 40 00                            mov dword ptr [eax*4+0x40c004], edx
0x406344: A1 00 C0 40 00                                  mov eax, dword ptr [0x40c000]
0x406349: 8D 50 01                                        lea edx, ptr [eax+0x1]
0x40634C: 8B 85 44 FB FF FF                               mov eax, dword ptr [ebp-0x4bc]
0x406352: 89 04 95 04 C0 40 00                            mov dword ptr [edx*4+0x40c004], eax
0x406359: A1 00 C0 40 00                                  mov eax, dword ptr [0x40c000]
0x40635E: 8D 50 02                                        lea edx, ptr [eax+0x2]
0x406361: 8B 85 40 FB FF FF                               mov eax, dword ptr [ebp-0x4c0]
0x406367: 89 04 95 04 C0 40 00                            mov dword ptr [edx*4+0x40c004], eax
0x40636E: A1 00 C0 40 00                                  mov eax, dword ptr [0x40c000]
0x406373: 83 C0 03                                        add eax, 0x3
0x406376: A3 00 C0 40 00                                  mov dword ptr [0x40c000], eax
0x40637B: A1 04 80 40 00                                  mov eax, dword ptr [0x408004]
0x406380: 83 F8 04                                        cmp eax, 0x4
0x406383: 0F 8E C5 00 00 00                               jle 0xcb
0x406389: A1 00 C0 40 00                                  mov eax, dword ptr [0x40c000]
0x40638E: 83 C0 03                                        add eax, 0x3
0x406391: 83 F8 06                                        cmp eax, 0x6
0x406394: 0F 8F B4 00 00 00                               jnle 0xba
0x40639A: 8B 15 38 C0 40 00                               mov edx, dword ptr [0x40c038]
0x4063A0: A1 30 C0 40 00                                  mov eax, dword ptr [0x40c030]
0x4063A5: 39 C2                                           cmp edx, eax
0x4063A7: 0F 85 A1 00 00 00                               jnz 0xa7
0x4063AD: 8B 15 38 C0 40 00                               mov edx, dword ptr [0x40c038]
0x4063B3: A1 2C C0 40 00                                  mov eax, dword ptr [0x40c02c]
0x4063B8: 39 C2                                           cmp edx, eax
0x4063BA: 0F 85 8E 00 00 00                               jnz 0x94
0x4063C0: A1 34 C0 40 00                                  mov eax, dword ptr [0x40c034]
0x4063C5: 89 85 3C FB FF FF                               mov dword ptr [ebp-0x4c4], eax
0x4063CB: A1 38 C0 40 00                                  mov eax, dword ptr [0x40c038]
0x4063D0: 89 85 38 FB FF FF                               mov dword ptr [ebp-0x4c8], eax
0x4063D6: 8B 85 38 FB FF FF                               mov eax, dword ptr [ebp-0x4c8]
0x4063DC: 3B 85 3C FB FF FF                               cmp eax, dword ptr [ebp-0x4c4]
0x4063E2: 7E 6A                                           jle 0x6c
0x4063E4: A1 04 80 40 00                                  mov eax, dword ptr [0x408004]
0x4063E9: 83 E8 04                                        sub eax, 0x4
0x4063EC: A3 04 80 40 00                                  mov dword ptr [0x408004], eax
0x4063F1: 8B 95 3C FB FF FF                               mov edx, dword ptr [ebp-0x4c4]
0x4063F7: 8B 85 38 FB FF FF                               mov eax, dword ptr [ebp-0x4c8]
0x4063FD: 01 D0                                           add eax, edx
0x4063FF: 89 85 34 FB FF FF                               mov dword ptr [ebp-0x4cc], eax
0x406405: A1 00 C0 40 00                                  mov eax, dword ptr [0x40c000]
0x40640A: 8B 95 3C FB FF FF                               mov edx, dword ptr [ebp-0x4c4]
0x406410: 89 14 85 04 C0 40 00                            mov dword ptr [eax*4+0x40c004], edx
0x406417: A1 00 C0 40 00                                  mov eax, dword ptr [0x40c000]
0x40641C: 8D 50 01                                        lea edx, ptr [eax+0x1]
0x40641F: 8B 85 38 FB FF FF                               mov eax, dword ptr [ebp-0x4c8]
0x406425: 89 04 95 04 C0 40 00                            mov dword ptr [edx*4+0x40c004], eax
0x40642C: A1 00 C0 40 00                                  mov eax, dword ptr [0x40c000]
0x406431: 8D 50 02                                        lea edx, ptr [eax+0x2]
0x406434: 8B 85 34 FB FF FF                               mov eax, dword ptr [ebp-0x4cc]
0x40643A: 89 04 95 04 C0 40 00                            mov dword ptr [edx*4+0x40c004], eax
0x406441: A1 00 C0 40 00                                  mov eax, dword ptr [0x40c000]
0x406446: 83 C0 03                                        add eax, 0x3
0x406449: A3 00 C0 40 00                                  mov dword ptr [0x40c000], eax
0x40644E: A1 04 80 40 00                                  mov eax, dword ptr [0x408004]
0x406453: 83 F8 04                                        cmp eax, 0x4
0x406456: 0F 8E CF 00 00 00                               jle 0xd5
0x40645C: A1 00 C0 40 00                                  mov eax, dword ptr [0x40c000]
0x406461: 83 C0 03                                        add eax, 0x3
0x406464: 83 F8 06                                        cmp eax, 0x6
0x406467: 0F 8F BE 00 00 00                               jnle 0xc4
0x40646D: 8B 15 28 C0 40 00                               mov edx, dword ptr [0x40c028]
0x406473: A1 2C C0 40 00                                  mov eax, dword ptr [0x40c02c]
0x406478: 39 C2                                           cmp edx, eax
0x40647A: 0F 85 AB 00 00 00                               jnz 0xb1
0x406480: 8B 15 28 C0 40 00                               mov edx, dword ptr [0x40c028]
0x406486: A1 30 C0 40 00                                  mov eax, dword ptr [0x40c030]
0x40648B: 39 C2                                           cmp edx, eax
0x40648D: 0F 85 98 00 00 00                               jnz 0x9e
0x406493: A1 38 C0 40 00                                  mov eax, dword ptr [0x40c038]
0x406498: 89 85 30 FB FF FF                               mov dword ptr [ebp-0x4d0], eax
0x40649E: A1 28 C0 40 00                                  mov eax, dword ptr [0x40c028]
0x4064A3: 89 85 2C FB FF FF                               mov dword ptr [ebp-0x4d4], eax
0x4064A9: 8B 85 2C FB FF FF                               mov eax, dword ptr [ebp-0x4d4]
0x4064AF: 3B 85 30 FB FF FF                               cmp eax, dword ptr [ebp-0x4d0]
0x4064B5: 7E 74                                           jle 0x76
0x4064B7: A1 34 C0 40 00                                  mov eax, dword ptr [0x40c034]
0x4064BC: A3 28 C0 40 00                                  mov dword ptr [0x40c028], eax
0x4064C1: A1 04 80 40 00                                  mov eax, dword ptr [0x408004]
0x4064C6: 83 E8 04                                        sub eax, 0x4
0x4064C9: A3 04 80 40 00                                  mov dword ptr [0x408004], eax
0x4064CE: 8B 95 30 FB FF FF                               mov edx, dword ptr [ebp-0x4d0]
0x4064D4: 8B 85 2C FB FF FF                               mov eax, dword ptr [ebp-0x4d4]
0x4064DA: 01 D0                                           add eax, edx
0x4064DC: 89 85 28 FB FF FF                               mov dword ptr [ebp-0x4d8], eax
0x4064E2: A1 00 C0 40 00                                  mov eax, dword ptr [0x40c000]
0x4064E7: 8B 95 30 FB FF FF                               mov edx, dword ptr [ebp-0x4d0]
0x4064ED: 89 14 85 04 C0 40 00                            mov dword ptr [eax*4+0x40c004], edx
0x4064F4: A1 00 C0 40 00                                  mov eax, dword ptr [0x40c000]
0x4064F9: 8D 50 01                                        lea edx, ptr [eax+0x1]
0x4064FC: 8B 85 2C FB FF FF                               mov eax, dword ptr [ebp-0x4d4]
0x406502: 89 04 95 04 C0 40 00                            mov dword ptr [edx*4+0x40c004], eax
0x406509: A1 00 C0 40 00                                  mov eax, dword ptr [0x40c000]
0x40650E: 8D 50 02                                        lea edx, ptr [eax+0x2]
0x406511: 8B 85 28 FB FF FF                               mov eax, dword ptr [ebp-0x4d8]
0x406517: 89 04 95 04 C0 40 00                            mov dword ptr [edx*4+0x40c004], eax
0x40651E: A1 00 C0 40 00                                  mov eax, dword ptr [0x40c000]
0x406523: 83 C0 03                                        add eax, 0x3
0x406526: A3 00 C0 40 00                                  mov dword ptr [0x40c000], eax
0x40652B: A1 04 80 40 00                                  mov eax, dword ptr [0x408004]
0x406530: 83 F8 04                                        cmp eax, 0x4
0x406533: 0F 8E CF 00 00 00                               jle 0xd5
0x406539: A1 00 C0 40 00                                  mov eax, dword ptr [0x40c000]
0x40653E: 83 C0 03                                        add eax, 0x3
0x406541: 83 F8 06                                        cmp eax, 0x6
0x406544: 0F 8F BE 00 00 00                               jnle 0xc4
0x40654A: 8B 15 28 C0 40 00                               mov edx, dword ptr [0x40c028]
0x406550: A1 2C C0 40 00                                  mov eax, dword ptr [0x40c02c]
0x406555: 39 C2                                           cmp edx, eax
0x406557: 0F 85 AB 00 00 00                               jnz 0xb1
0x40655D: 8B 15 28 C0 40 00                               mov edx, dword ptr [0x40c028]
0x406563: A1 34 C0 40 00                                  mov eax, dword ptr [0x40c034]
0x406568: 39 C2                                           cmp edx, eax
0x40656A: 0F 85 98 00 00 00                               jnz 0x9e
0x406570: A1 38 C0 40 00                                  mov eax, dword ptr [0x40c038]
0x406575: 89 85 24 FB FF FF                               mov dword ptr [ebp-0x4dc], eax
0x40657B: A1 28 C0 40 00                                  mov eax, dword ptr [0x40c028]
0x406580: 89 85 20 FB FF FF                               mov dword ptr [ebp-0x4e0], eax
0x406586: 8B 85 20 FB FF FF                               mov eax, dword ptr [ebp-0x4e0]
0x40658C: 3B 85 24 FB FF FF                               cmp eax, dword ptr [ebp-0x4dc]
0x406592: 7E 74                                           jle 0x76
0x406594: A1 30 C0 40 00                                  mov eax, dword ptr [0x40c030]
0x406599: A3 28 C0 40 00                                  mov dword ptr [0x40c028], eax
0x40659E: A1 04 80 40 00                                  mov eax, dword ptr [0x408004]
0x4065A3: 83 E8 04                                        sub eax, 0x4
0x4065A6: A3 04 80 40 00                                  mov dword ptr [0x408004], eax
0x4065AB: 8B 95 24 FB FF FF                               mov edx, dword ptr [ebp-0x4dc]
0x4065B1: 8B 85 20 FB FF FF                               mov eax, dword ptr [ebp-0x4e0]
0x4065B7: 01 D0                                           add eax, edx
0x4065B9: 89 85 1C FB FF FF                               mov dword ptr [ebp-0x4e4], eax
0x4065BF: A1 00 C0 40 00                                  mov eax, dword ptr [0x40c000]
0x4065C4: 8B 95 24 FB FF FF                               mov edx, dword ptr [ebp-0x4dc]
0x4065CA: 89 14 85 04 C0 40 00                            mov dword ptr [eax*4+0x40c004], edx
0x4065D1: A1 00 C0 40 00                                  mov eax, dword ptr [0x40c000]
0x4065D6: 8D 50 01                                        lea edx, ptr [eax+0x1]
0x4065D9: 8B 85 20 FB FF FF                               mov eax, dword ptr [ebp-0x4e0]
0x4065DF: 89 04 95 04 C0 40 00                            mov dword ptr [edx*4+0x40c004], eax
0x4065E6: A1 00 C0 40 00                                  mov eax, dword ptr [0x40c000]
0x4065EB: 8D 50 02                                        lea edx, ptr [eax+0x2]
0x4065EE: 8B 85 1C FB FF FF                               mov eax, dword ptr [ebp-0x4e4]
0x4065F4: 89 04 95 04 C0 40 00                            mov dword ptr [edx*4+0x40c004], eax
0x4065FB: A1 00 C0 40 00                                  mov eax, dword ptr [0x40c000]
0x406600: 83 C0 03                                        add eax, 0x3
0x406603: A3 00 C0 40 00                                  mov dword ptr [0x40c000], eax
0x406608: A1 04 80 40 00                                  mov eax, dword ptr [0x408004]
0x40660D: 83 F8 04                                        cmp eax, 0x4
0x406610: 0F 8E CF 00 00 00                               jle 0xd5
0x406616: A1 00 C0 40 00                                  mov eax, dword ptr [0x40c000]
0x40661B: 83 C0 03                                        add eax, 0x3
0x40661E: 83 F8 06                                        cmp eax, 0x6
0x406621: 0F 8F BE 00 00 00                               jnle 0xc4
0x406627: 8B 15 28 C0 40 00                               mov edx, dword ptr [0x40c028]
0x40662D: A1 30 C0 40 00                                  mov eax, dword ptr [0x40c030]
0x406632: 39 C2                                           cmp edx, eax
0x406634: 0F 85 AB 00 00 00                               jnz 0xb1
0x40663A: 8B 15 28 C0 40 00                               mov edx, dword ptr [0x40c028]
0x406640: A1 2C C0 40 00                                  mov eax, dword ptr [0x40c02c]
0x406645: 39 C2                                           cmp edx, eax
0x406647: 0F 85 98 00 00 00                               jnz 0x9e
0x40664D: A1 38 C0 40 00                                  mov eax, dword ptr [0x40c038]
0x406652: 89 85 18 FB FF FF                               mov dword ptr [ebp-0x4e8], eax
0x406658: A1 28 C0 40 00                                  mov eax, dword ptr [0x40c028]
0x40665D: 89 85 14 FB FF FF                               mov dword ptr [ebp-0x4ec], eax
0x406663: 8B 85 14 FB FF FF                               mov eax, dword ptr [ebp-0x4ec]
0x406669: 3B 85 18 FB FF FF                               cmp eax, dword ptr [ebp-0x4e8]
0x40666F: 7E 74                                           jle 0x76
0x406671: A1 34 C0 40 00                                  mov eax, dword ptr [0x40c034]
0x406676: A3 28 C0 40 00                                  mov dword ptr [0x40c028], eax
0x40667B: A1 04 80 40 00                                  mov eax, dword ptr [0x408004]
0x406680: 83 E8 04                                        sub eax, 0x4
0x406683: A3 04 80 40 00                                  mov dword ptr [0x408004], eax
0x406688: 8B 95 18 FB FF FF                               mov edx, dword ptr [ebp-0x4e8]
0x40668E: 8B 85 14 FB FF FF                               mov eax, dword ptr [ebp-0x4ec]
0x406694: 01 D0                                           add eax, edx
0x406696: 89 85 10 FB FF FF                               mov dword ptr [ebp-0x4f0], eax
0x40669C: A1 00 C0 40 00                                  mov eax, dword ptr [0x40c000]
0x4066A1: 8B 95 18 FB FF FF                               mov edx, dword ptr [ebp-0x4e8]
0x4066A7: 89 14 85 04 C0 40 00                            mov dword ptr [eax*4+0x40c004], edx
0x4066AE: A1 00 C0 40 00                                  mov eax, dword ptr [0x40c000]
0x4066B3: 8D 50 01                                        lea edx, ptr [eax+0x1]
0x4066B6: 8B 85 14 FB FF FF                               mov eax, dword ptr [ebp-0x4ec]
0x4066BC: 89 04 95 04 C0 40 00                            mov dword ptr [edx*4+0x40c004], eax
0x4066C3: A1 00 C0 40 00                                  mov eax, dword ptr [0x40c000]
0x4066C8: 8D 50 02                                        lea edx, ptr [eax+0x2]
0x4066CB: 8B 85 10 FB FF FF                               mov eax, dword ptr [ebp-0x4f0]
0x4066D1: 89 04 95 04 C0 40 00                            mov dword ptr [edx*4+0x40c004], eax
0x4066D8: A1 00 C0 40 00                                  mov eax, dword ptr [0x40c000]
0x4066DD: 83 C0 03                                        add eax, 0x3
0x4066E0: A3 00 C0 40 00                                  mov dword ptr [0x40c000], eax
0x4066E5: A1 04 80 40 00                                  mov eax, dword ptr [0x408004]
0x4066EA: 83 F8 04                                        cmp eax, 0x4
0x4066ED: 0F 8E CF 00 00 00                               jle 0xd5
0x4066F3: A1 00 C0 40 00                                  mov eax, dword ptr [0x40c000]
0x4066F8: 83 C0 03                                        add eax, 0x3
0x4066FB: 83 F8 06                                        cmp eax, 0x6
0x4066FE: 0F 8F BE 00 00 00                               jnle 0xc4
0x406704: 8B 15 28 C0 40 00                               mov edx, dword ptr [0x40c028]
0x40670A: A1 30 C0 40 00                                  mov eax, dword ptr [0x40c030]
0x40670F: 39 C2                                           cmp edx, eax
0x406711: 0F 85 AB 00 00 00                               jnz 0xb1
0x406717: 8B 15 28 C0 40 00                               mov edx, dword ptr [0x40c028]
0x40671D: A1 34 C0 40 00                                  mov eax, dword ptr [0x40c034]
0x406722: 39 C2                                           cmp edx, eax
0x406724: 0F 85 98 00 00 00                               jnz 0x9e
0x40672A: A1 38 C0 40 00                                  mov eax, dword ptr [0x40c038]
0x40672F: 89 85 0C FB FF FF                               mov dword ptr [ebp-0x4f4], eax
0x406735: A1 28 C0 40 00                                  mov eax, dword ptr [0x40c028]
0x40673A: 89 85 08 FB FF FF                               mov dword ptr [ebp-0x4f8], eax
0x406740: 8B 85 08 FB FF FF                               mov eax, dword ptr [ebp-0x4f8]
0x406746: 3B 85 0C FB FF FF                               cmp eax, dword ptr [ebp-0x4f4]
0x40674C: 7E 74                                           jle 0x76
0x40674E: A1 2C C0 40 00                                  mov eax, dword ptr [0x40c02c]
0x406753: A3 28 C0 40 00                                  mov dword ptr [0x40c028], eax
0x406758: A1 04 80 40 00                                  mov eax, dword ptr [0x408004]
0x40675D: 83 E8 04                                        sub eax, 0x4
0x406760: A3 04 80 40 00                                  mov dword ptr [0x408004], eax
0x406765: 8B 95 0C FB FF FF                               mov edx, dword ptr [ebp-0x4f4]
0x40676B: 8B 85 08 FB FF FF                               mov eax, dword ptr [ebp-0x4f8]
0x406771: 01 D0                                           add eax, edx
0x406773: 89 85 04 FB FF FF                               mov dword ptr [ebp-0x4fc], eax
0x406779: A1 00 C0 40 00                                  mov eax, dword ptr [0x40c000]
0x40677E: 8B 95 0C FB FF FF                               mov edx, dword ptr [ebp-0x4f4]
0x406784: 89 14 85 04 C0 40 00                            mov dword ptr [eax*4+0x40c004], edx
0x40678B: A1 00 C0 40 00                                  mov eax, dword ptr [0x40c000]
0x406790: 8D 50 01                                        lea edx, ptr [eax+0x1]
0x406793: 8B 85 08 FB FF FF                               mov eax, dword ptr [ebp-0x4f8]
0x406799: 89 04 95 04 C0 40 00                            mov dword ptr [edx*4+0x40c004], eax
0x4067A0: A1 00 C0 40 00                                  mov eax, dword ptr [0x40c000]
0x4067A5: 8D 50 02                                        lea edx, ptr [eax+0x2]
0x4067A8: 8B 85 04 FB FF FF                               mov eax, dword ptr [ebp-0x4fc]
0x4067AE: 89 04 95 04 C0 40 00                            mov dword ptr [edx*4+0x40c004], eax
0x4067B5: A1 00 C0 40 00                                  mov eax, dword ptr [0x40c000]
0x4067BA: 83 C0 03                                        add eax, 0x3
0x4067BD: A3 00 C0 40 00                                  mov dword ptr [0x40c000], eax
0x4067C2: A1 04 80 40 00                                  mov eax, dword ptr [0x408004]
0x4067C7: 83 F8 04                                        cmp eax, 0x4
0x4067CA: 0F 8E CF 00 00 00                               jle 0xd5
0x4067D0: A1 00 C0 40 00                                  mov eax, dword ptr [0x40c000]
0x4067D5: 83 C0 03                                        add eax, 0x3
0x4067D8: 83 F8 06                                        cmp eax, 0x6
0x4067DB: 0F 8F BE 00 00 00                               jnle 0xc4
0x4067E1: 8B 15 28 C0 40 00                               mov edx, dword ptr [0x40c028]
0x4067E7: A1 34 C0 40 00                                  mov eax, dword ptr [0x40c034]
0x4067EC: 39 C2                                           cmp edx, eax
0x4067EE: 0F 85 AB 00 00 00                               jnz 0xb1
0x4067F4: 8B 15 28 C0 40 00                               mov edx, dword ptr [0x40c028]
0x4067FA: A1 2C C0 40 00                                  mov eax, dword ptr [0x40c02c]
0x4067FF: 39 C2                                           cmp edx, eax
0x406801: 0F 85 98 00 00 00                               jnz 0x9e
0x406807: A1 38 C0 40 00                                  mov eax, dword ptr [0x40c038]
0x40680C: 89 85 00 FB FF FF                               mov dword ptr [ebp-0x500], eax
0x406812: A1 28 C0 40 00                                  mov eax, dword ptr [0x40c028]
0x406817: 89 85 FC FA FF FF                               mov dword ptr [ebp-0x504], eax
0x40681D: 8B 85 FC FA FF FF                               mov eax, dword ptr [ebp-0x504]
0x406823: 3B 85 00 FB FF FF                               cmp eax, dword ptr [ebp-0x500]
0x406829: 7E 74                                           jle 0x76
0x40682B: A1 30 C0 40 00                                  mov eax, dword ptr [0x40c030]
0x406830: A3 28 C0 40 00                                  mov dword ptr [0x40c028], eax
0x406835: A1 04 80 40 00                                  mov eax, dword ptr [0x408004]
0x40683A: 83 E8 04                                        sub eax, 0x4
0x40683D: A3 04 80 40 00                                  mov dword ptr [0x408004], eax
0x406842: 8B 95 00 FB FF FF                               mov edx, dword ptr [ebp-0x500]
0x406848: 8B 85 FC FA FF FF                               mov eax, dword ptr [ebp-0x504]
0x40684E: 01 D0                                           add eax, edx
0x406850: 89 85 F8 FA FF FF                               mov dword ptr [ebp-0x508], eax
0x406856: A1 00 C0 40 00                                  mov eax, dword ptr [0x40c000]
0x40685B: 8B 95 00 FB FF FF                               mov edx, dword ptr [ebp-0x500]
0x406861: 89 14 85 04 C0 40 00                            mov dword ptr [eax*4+0x40c004], edx
0x406868: A1 00 C0 40 00                                  mov eax, dword ptr [0x40c000]
0x40686D: 8D 50 01                                        lea edx, ptr [eax+0x1]
0x406870: 8B 85 FC FA FF FF                               mov eax, dword ptr [ebp-0x504]
0x406876: 89 04 95 04 C0 40 00                            mov dword ptr [edx*4+0x40c004], eax
0x40687D: A1 00 C0 40 00                                  mov eax, dword ptr [0x40c000]
0x406882: 8D 50 02                                        lea edx, ptr [eax+0x2]
0x406885: 8B 85 F8 FA FF FF                               mov eax, dword ptr [ebp-0x508]
0x40688B: 89 04 95 04 C0 40 00                            mov dword ptr [edx*4+0x40c004], eax
0x406892: A1 00 C0 40 00                                  mov eax, dword ptr [0x40c000]
0x406897: 83 C0 03                                        add eax, 0x3
0x40689A: A3 00 C0 40 00                                  mov dword ptr [0x40c000], eax
0x40689F: A1 04 80 40 00                                  mov eax, dword ptr [0x408004]
0x4068A4: 83 F8 04                                        cmp eax, 0x4
0x4068A7: 0F 8E CF 00 00 00                               jle 0xd5
0x4068AD: A1 00 C0 40 00                                  mov eax, dword ptr [0x40c000]
0x4068B2: 83 C0 03                                        add eax, 0x3
0x4068B5: 83 F8 06                                        cmp eax, 0x6
0x4068B8: 0F 8F BE 00 00 00                               jnle 0xc4
0x4068BE: 8B 15 28 C0 40 00                               mov edx, dword ptr [0x40c028]
0x4068C4: A1 34 C0 40 00                                  mov eax, dword ptr [0x40c034]
0x4068C9: 39 C2                                           cmp edx, eax
0x4068CB: 0F 85 AB 00 00 00                               jnz 0xb1
0x4068D1: 8B 15 28 C0 40 00                               mov edx, dword ptr [0x40c028]
0x4068D7: A1 30 C0 40 00                                  mov eax, dword ptr [0x40c030]
0x4068DC: 39 C2                                           cmp edx, eax
0x4068DE: 0F 85 98 00 00 00                               jnz 0x9e
0x4068E4: A1 38 C0 40 00                                  mov eax, dword ptr [0x40c038]
0x4068E9: 89 85 F4 FA FF FF                               mov dword ptr [ebp-0x50c], eax
0x4068EF: A1 28 C0 40 00                                  mov eax, dword ptr [0x40c028]
0x4068F4: 89 85 F0 FA FF FF                               mov dword ptr [ebp-0x510], eax
0x4068FA: 8B 85 F0 FA FF FF                               mov eax, dword ptr [ebp-0x510]
0x406900: 3B 85 F4 FA FF FF                               cmp eax, dword ptr [ebp-0x50c]
0x406906: 7E 74                                           jle 0x76
0x406908: A1 2C C0 40 00                                  mov eax, dword ptr [0x40c02c]
0x40690D: A3 28 C0 40 00                                  mov dword ptr [0x40c028], eax
0x406912: A1 04 80 40 00                                  mov eax, dword ptr [0x408004]
0x406917: 83 E8 04                                        sub eax, 0x4
0x40691A: A3 04 80 40 00                                  mov dword ptr [0x408004], eax
0x40691F: 8B 95 F4 FA FF FF                               mov edx, dword ptr [ebp-0x50c]
0x406925: 8B 85 F0 FA FF FF                               mov eax, dword ptr [ebp-0x510]
0x40692B: 01 D0                                           add eax, edx
0x40692D: 89 85 EC FA FF FF                               mov dword ptr [ebp-0x514], eax
0x406933: A1 00 C0 40 00                                  mov eax, dword ptr [0x40c000]
0x406938: 8B 95 F4 FA FF FF                               mov edx, dword ptr [ebp-0x50c]
0x40693E: 89 14 85 04 C0 40 00                            mov dword ptr [eax*4+0x40c004], edx
0x406945: A1 00 C0 40 00                                  mov eax, dword ptr [0x40c000]
0x40694A: 8D 50 01                                        lea edx, ptr [eax+0x1]
0x40694D: 8B 85 F0 FA FF FF                               mov eax, dword ptr [ebp-0x510]
0x406953: 89 04 95 04 C0 40 00                            mov dword ptr [edx*4+0x40c004], eax
0x40695A: A1 00 C0 40 00                                  mov eax, dword ptr [0x40c000]
0x40695F: 8D 50 02                                        lea edx, ptr [eax+0x2]
0x406962: 8B 85 EC FA FF FF                               mov eax, dword ptr [ebp-0x514]
0x406968: 89 04 95 04 C0 40 00                            mov dword ptr [edx*4+0x40c004], eax
0x40696F: A1 00 C0 40 00                                  mov eax, dword ptr [0x40c000]
0x406974: 83 C0 03                                        add eax, 0x3
0x406977: A3 00 C0 40 00                                  mov dword ptr [0x40c000], eax
0x40697C: A1 04 80 40 00                                  mov eax, dword ptr [0x408004]
0x406981: 83 F8 04                                        cmp eax, 0x4
0x406984: 0F 8E CF 00 00 00                               jle 0xd5
0x40698A: A1 00 C0 40 00                                  mov eax, dword ptr [0x40c000]
0x40698F: 83 C0 03                                        add eax, 0x3
0x406992: 83 F8 06                                        cmp eax, 0x6
0x406995: 0F 8F BE 00 00 00                               jnle 0xc4
0x40699B: 8B 15 2C C0 40 00                               mov edx, dword ptr [0x40c02c]
0x4069A1: A1 28 C0 40 00                                  mov eax, dword ptr [0x40c028]
0x4069A6: 39 C2                                           cmp edx, eax
0x4069A8: 0F 85 AB 00 00 00                               jnz 0xb1
0x4069AE: 8B 15 2C C0 40 00                               mov edx, dword ptr [0x40c02c]
0x4069B4: A1 30 C0 40 00                                  mov eax, dword ptr [0x40c030]
0x4069B9: 39 C2                                           cmp edx, eax
0x4069BB: 0F 85 98 00 00 00                               jnz 0x9e
0x4069C1: A1 38 C0 40 00                                  mov eax, dword ptr [0x40c038]
0x4069C6: 89 85 E8 FA FF FF                               mov dword ptr [ebp-0x518], eax
0x4069CC: A1 2C C0 40 00                                  mov eax, dword ptr [0x40c02c]
0x4069D1: 89 85 E4 FA FF FF                               mov dword ptr [ebp-0x51c], eax
0x4069D7: 8B 85 E4 FA FF FF                               mov eax, dword ptr [ebp-0x51c]
0x4069DD: 3B 85 E8 FA FF FF                               cmp eax, dword ptr [ebp-0x518]
0x4069E3: 7E 74                                           jle 0x76
0x4069E5: A1 34 C0 40 00                                  mov eax, dword ptr [0x40c034]
0x4069EA: A3 28 C0 40 00                                  mov dword ptr [0x40c028], eax
0x4069EF: A1 04 80 40 00                                  mov eax, dword ptr [0x408004]
0x4069F4: 83 E8 04                                        sub eax, 0x4
0x4069F7: A3 04 80 40 00                                  mov dword ptr [0x408004], eax
0x4069FC: 8B 95 E8 FA FF FF                               mov edx, dword ptr [ebp-0x518]
0x406A02: 8B 85 E4 FA FF FF                               mov eax, dword ptr [ebp-0x51c]
0x406A08: 01 D0                                           add eax, edx
0x406A0A: 89 85 E0 FA FF FF                               mov dword ptr [ebp-0x520], eax
0x406A10: A1 00 C0 40 00                                  mov eax, dword ptr [0x40c000]
0x406A15: 8B 95 E8 FA FF FF                               mov edx, dword ptr [ebp-0x518]
0x406A1B: 89 14 85 04 C0 40 00                            mov dword ptr [eax*4+0x40c004], edx
0x406A22: A1 00 C0 40 00                                  mov eax, dword ptr [0x40c000]
0x406A27: 8D 50 01                                        lea edx, ptr [eax+0x1]
0x406A2A: 8B 85 E4 FA FF FF                               mov eax, dword ptr [ebp-0x51c]
0x406A30: 89 04 95 04 C0 40 00                            mov dword ptr [edx*4+0x40c004], eax
0x406A37: A1 00 C0 40 00                                  mov eax, dword ptr [0x40c000]
0x406A3C: 8D 50 02                                        lea edx, ptr [eax+0x2]
0x406A3F: 8B 85 E0 FA FF FF                               mov eax, dword ptr [ebp-0x520]
0x406A45: 89 04 95 04 C0 40 00                            mov dword ptr [edx*4+0x40c004], eax
0x406A4C: A1 00 C0 40 00                                  mov eax, dword ptr [0x40c000]
0x406A51: 83 C0 03                                        add eax, 0x3
0x406A54: A3 00 C0 40 00                                  mov dword ptr [0x40c000], eax
0x406A59: A1 04 80 40 00                                  mov eax, dword ptr [0x408004]
0x406A5E: 83 F8 04                                        cmp eax, 0x4
0x406A61: 0F 8E CF 00 00 00                               jle 0xd5
0x406A67: A1 00 C0 40 00                                  mov eax, dword ptr [0x40c000]
0x406A6C: 83 C0 03                                        add eax, 0x3
0x406A6F: 83 F8 06                                        cmp eax, 0x6
0x406A72: 0F 8F BE 00 00 00                               jnle 0xc4
0x406A78: 8B 15 2C C0 40 00                               mov edx, dword ptr [0x40c02c]
0x406A7E: A1 28 C0 40 00                                  mov eax, dword ptr [0x40c028]
0x406A83: 39 C2                                           cmp edx, eax
0x406A85: 0F 85 AB 00 00 00                               jnz 0xb1
0x406A8B: 8B 15 2C C0 40 00                               mov edx, dword ptr [0x40c02c]
0x406A91: A1 34 C0 40 00                                  mov eax, dword ptr [0x40c034]
0x406A96: 39 C2                                           cmp edx, eax
0x406A98: 0F 85 98 00 00 00                               jnz 0x9e
0x406A9E: A1 38 C0 40 00                                  mov eax, dword ptr [0x40c038]
0x406AA3: 89 85 DC FA FF FF                               mov dword ptr [ebp-0x524], eax
0x406AA9: A1 2C C0 40 00                                  mov eax, dword ptr [0x40c02c]
0x406AAE: 89 85 D8 FA FF FF                               mov dword ptr [ebp-0x528], eax
0x406AB4: 8B 85 D8 FA FF FF                               mov eax, dword ptr [ebp-0x528]
0x406ABA: 3B 85 DC FA FF FF                               cmp eax, dword ptr [ebp-0x524]
0x406AC0: 7E 74                                           jle 0x76
0x406AC2: A1 30 C0 40 00                                  mov eax, dword ptr [0x40c030]
0x406AC7: A3 28 C0 40 00                                  mov dword ptr [0x40c028], eax
0x406ACC: A1 04 80 40 00                                  mov eax, dword ptr [0x408004]
0x406AD1: 83 E8 04                                        sub eax, 0x4
0x406AD4: A3 04 80 40 00                                  mov dword ptr [0x408004], eax
0x406AD9: 8B 95 DC FA FF FF                               mov edx, dword ptr [ebp-0x524]
0x406ADF: 8B 85 D8 FA FF FF                               mov eax, dword ptr [ebp-0x528]
0x406AE5: 01 D0                                           add eax, edx
0x406AE7: 89 85 D4 FA FF FF                               mov dword ptr [ebp-0x52c], eax
0x406AED: A1 00 C0 40 00                                  mov eax, dword ptr [0x40c000]
0x406AF2: 8B 95 DC FA FF FF                               mov edx, dword ptr [ebp-0x524]
0x406AF8: 89 14 85 04 C0 40 00                            mov dword ptr [eax*4+0x40c004], edx
0x406AFF: A1 00 C0 40 00                                  mov eax, dword ptr [0x40c000]
0x406B04: 8D 50 01                                        lea edx, ptr [eax+0x1]
0x406B07: 8B 85 D8 FA FF FF                               mov eax, dword ptr [ebp-0x528]
0x406B0D: 89 04 95 04 C0 40 00                            mov dword ptr [edx*4+0x40c004], eax
0x406B14: A1 00 C0 40 00                                  mov eax, dword ptr [0x40c000]
0x406B19: 8D 50 02                                        lea edx, ptr [eax+0x2]
0x406B1C: 8B 85 D4 FA FF FF                               mov eax, dword ptr [ebp-0x52c]
0x406B22: 89 04 95 04 C0 40 00                            mov dword ptr [edx*4+0x40c004], eax
0x406B29: A1 00 C0 40 00                                  mov eax, dword ptr [0x40c000]
0x406B2E: 83 C0 03                                        add eax, 0x3
0x406B31: A3 00 C0 40 00                                  mov dword ptr [0x40c000], eax
0x406B36: A1 04 80 40 00                                  mov eax, dword ptr [0x408004]
0x406B3B: 83 F8 04                                        cmp eax, 0x4
0x406B3E: 0F 8E CF 00 00 00                               jle 0xd5
0x406B44: A1 00 C0 40 00                                  mov eax, dword ptr [0x40c000]
0x406B49: 83 C0 03                                        add eax, 0x3
0x406B4C: 83 F8 06                                        cmp eax, 0x6
0x406B4F: 0F 8F BE 00 00 00                               jnle 0xc4
0x406B55: 8B 15 2C C0 40 00                               mov edx, dword ptr [0x40c02c]
0x406B5B: A1 30 C0 40 00                                  mov eax, dword ptr [0x40c030]
0x406B60: 39 C2                                           cmp edx, eax
0x406B62: 0F 85 AB 00 00 00                               jnz 0xb1
0x406B68: 8B 15 2C C0 40 00                               mov edx, dword ptr [0x40c02c]
0x406B6E: A1 28 C0 40 00                                  mov eax, dword ptr [0x40c028]
0x406B73: 39 C2                                           cmp edx, eax
0x406B75: 0F 85 98 00 00 00                               jnz 0x9e
0x406B7B: A1 38 C0 40 00                                  mov eax, dword ptr [0x40c038]
0x406B80: 89 85 D0 FA FF FF                               mov dword ptr [ebp-0x530], eax
0x406B86: A1 2C C0 40 00                                  mov eax, dword ptr [0x40c02c]
0x406B8B: 89 85 CC FA FF FF                               mov dword ptr [ebp-0x534], eax
0x406B91: 8B 85 CC FA FF FF                               mov eax, dword ptr [ebp-0x534]
0x406B97: 3B 85 D0 FA FF FF                               cmp eax, dword ptr [ebp-0x530]
0x406B9D: 7E 74                                           jle 0x76
0x406B9F: A1 34 C0 40 00                                  mov eax, dword ptr [0x40c034]
0x406BA4: A3 28 C0 40 00                                  mov dword ptr [0x40c028], eax
0x406BA9: A1 04 80 40 00                                  mov eax, dword ptr [0x408004]
0x406BAE: 83 E8 04                                        sub eax, 0x4
0x406BB1: A3 04 80 40 00                                  mov dword ptr [0x408004], eax
0x406BB6: 8B 95 D0 FA FF FF                               mov edx, dword ptr [ebp-0x530]
0x406BBC: 8B 85 CC FA FF FF                               mov eax, dword ptr [ebp-0x534]
0x406BC2: 01 D0                                           add eax, edx
0x406BC4: 89 85 C8 FA FF FF                               mov dword ptr [ebp-0x538], eax
0x406BCA: A1 00 C0 40 00                                  mov eax, dword ptr [0x40c000]
0x406BCF: 8B 95 D0 FA FF FF                               mov edx, dword ptr [ebp-0x530]
0x406BD5: 89 14 85 04 C0 40 00                            mov dword ptr [eax*4+0x40c004], edx
0x406BDC: A1 00 C0 40 00                                  mov eax, dword ptr [0x40c000]
0x406BE1: 8D 50 01                                        lea edx, ptr [eax+0x1]
0x406BE4: 8B 85 CC FA FF FF                               mov eax, dword ptr [ebp-0x534]
0x406BEA: 89 04 95 04 C0 40 00                            mov dword ptr [edx*4+0x40c004], eax
0x406BF1: A1 00 C0 40 00                                  mov eax, dword ptr [0x40c000]
0x406BF6: 8D 50 02                                        lea edx, ptr [eax+0x2]
0x406BF9: 8B 85 C8 FA FF FF                               mov eax, dword ptr [ebp-0x538]
0x406BFF: 89 04 95 04 C0 40 00                            mov dword ptr [edx*4+0x40c004], eax
0x406C06: A1 00 C0 40 00                                  mov eax, dword ptr [0x40c000]
0x406C0B: 83 C0 03                                        add eax, 0x3
0x406C0E: A3 00 C0 40 00                                  mov dword ptr [0x40c000], eax
0x406C13: A1 04 80 40 00                                  mov eax, dword ptr [0x408004]
0x406C18: 83 F8 04                                        cmp eax, 0x4
0x406C1B: 0F 8E C5 00 00 00                               jle 0xcb
0x406C21: A1 00 C0 40 00                                  mov eax, dword ptr [0x40c000]
0x406C26: 83 C0 03                                        add eax, 0x3
0x406C29: 83 F8 06                                        cmp eax, 0x6
0x406C2C: 0F 8F B4 00 00 00                               jnle 0xba
0x406C32: 8B 15 2C C0 40 00                               mov edx, dword ptr [0x40c02c]
0x406C38: A1 30 C0 40 00                                  mov eax, dword ptr [0x40c030]
0x406C3D: 39 C2                                           cmp edx, eax
0x406C3F: 0F 85 A1 00 00 00                               jnz 0xa7
0x406C45: 8B 15 2C C0 40 00                               mov edx, dword ptr [0x40c02c]
0x406C4B: A1 34 C0 40 00                                  mov eax, dword ptr [0x40c034]
0x406C50: 39 C2                                           cmp edx, eax
0x406C52: 0F 85 8E 00 00 00                               jnz 0x94
0x406C58: A1 38 C0 40 00                                  mov eax, dword ptr [0x40c038]
0x406C5D: 89 85 C4 FA FF FF                               mov dword ptr [ebp-0x53c], eax
0x406C63: A1 2C C0 40 00                                  mov eax, dword ptr [0x40c02c]
0x406C68: 89 85 C0 FA FF FF                               mov dword ptr [ebp-0x540], eax
0x406C6E: 8B 85 C0 FA FF FF                               mov eax, dword ptr [ebp-0x540]
0x406C74: 3B 85 C4 FA FF FF                               cmp eax, dword ptr [ebp-0x53c]
0x406C7A: 7E 6A                                           jle 0x6c
0x406C7C: A1 04 80 40 00                                  mov eax, dword ptr [0x408004]
0x406C81: 83 E8 04                                        sub eax, 0x4
0x406C84: A3 04 80 40 00                                  mov dword ptr [0x408004], eax
0x406C89: 8B 95 C4 FA FF FF                               mov edx, dword ptr [ebp-0x53c]
0x406C8F: 8B 85 C0 FA FF FF                               mov eax, dword ptr [ebp-0x540]
0x406C95: 01 D0                                           add eax, edx
0x406C97: 89 85 BC FA FF FF                               mov dword ptr [ebp-0x544], eax
0x406C9D: A1 00 C0 40 00                                  mov eax, dword ptr [0x40c000]
0x406CA2: 8B 95 C4 FA FF FF                               mov edx, dword ptr [ebp-0x53c]
0x406CA8: 89 14 85 04 C0 40 00                            mov dword ptr [eax*4+0x40c004], edx
0x406CAF: A1 00 C0 40 00                                  mov eax, dword ptr [0x40c000]
0x406CB4: 8D 50 01                                        lea edx, ptr [eax+0x1]
0x406CB7: 8B 85 C0 FA FF FF                               mov eax, dword ptr [ebp-0x540]
0x406CBD: 89 04 95 04 C0 40 00                            mov dword ptr [edx*4+0x40c004], eax
0x406CC4: A1 00 C0 40 00                                  mov eax, dword ptr [0x40c000]
0x406CC9: 8D 50 02                                        lea edx, ptr [eax+0x2]
0x406CCC: 8B 85 BC FA FF FF                               mov eax, dword ptr [ebp-0x544]
0x406CD2: 89 04 95 04 C0 40 00                            mov dword ptr [edx*4+0x40c004], eax
0x406CD9: A1 00 C0 40 00                                  mov eax, dword ptr [0x40c000]
0x406CDE: 83 C0 03                                        add eax, 0x3
0x406CE1: A3 00 C0 40 00                                  mov dword ptr [0x40c000], eax
0x406CE6: A1 04 80 40 00                                  mov eax, dword ptr [0x408004]
0x406CEB: 83 F8 04                                        cmp eax, 0x4
0x406CEE: 0F 8E CF 00 00 00                               jle 0xd5
0x406CF4: A1 00 C0 40 00                                  mov eax, dword ptr [0x40c000]
0x406CF9: 83 C0 03                                        add eax, 0x3
0x406CFC: 83 F8 06                                        cmp eax, 0x6
0x406CFF: 0F 8F BE 00 00 00                               jnle 0xc4
0x406D05: 8B 15 2C C0 40 00                               mov edx, dword ptr [0x40c02c]
0x406D0B: A1 34 C0 40 00                                  mov eax, dword ptr [0x40c034]
0x406D10: 39 C2                                           cmp edx, eax
0x406D12: 0F 85 AB 00 00 00                               jnz 0xb1
0x406D18: 8B 15 2C C0 40 00                               mov edx, dword ptr [0x40c02c]
0x406D1E: A1 28 C0 40 00                                  mov eax, dword ptr [0x40c028]
0x406D23: 39 C2                                           cmp edx, eax
0x406D25: 0F 85 98 00 00 00                               jnz 0x9e
0x406D2B: A1 38 C0 40 00                                  mov eax, dword ptr [0x40c038]
0x406D30: 89 85 B8 FA FF FF                               mov dword ptr [ebp-0x548], eax
0x406D36: A1 2C C0 40 00                                  mov eax, dword ptr [0x40c02c]
0x406D3B: 89 85 B4 FA FF FF                               mov dword ptr [ebp-0x54c], eax
0x406D41: 8B 85 B4 FA FF FF                               mov eax, dword ptr [ebp-0x54c]
0x406D47: 3B 85 B8 FA FF FF                               cmp eax, dword ptr [ebp-0x548]
0x406D4D: 7E 74                                           jle 0x76
0x406D4F: A1 30 C0 40 00                                  mov eax, dword ptr [0x40c030]
0x406D54: A3 28 C0 40 00                                  mov dword ptr [0x40c028], eax
0x406D59: A1 04 80 40 00                                  mov eax, dword ptr [0x408004]
0x406D5E: 83 E8 04                                        sub eax, 0x4
0x406D61: A3 04 80 40 00                                  mov dword ptr [0x408004], eax
0x406D66: 8B 95 B8 FA FF FF                               mov edx, dword ptr [ebp-0x548]
0x406D6C: 8B 85 B4 FA FF FF                               mov eax, dword ptr [ebp-0x54c]
0x406D72: 01 D0                                           add eax, edx
0x406D74: 89 85 B0 FA FF FF                               mov dword ptr [ebp-0x550], eax
0x406D7A: A1 00 C0 40 00                                  mov eax, dword ptr [0x40c000]
0x406D7F: 8B 95 B8 FA FF FF                               mov edx, dword ptr [ebp-0x548]
0x406D85: 89 14 85 04 C0 40 00                            mov dword ptr [eax*4+0x40c004], edx
0x406D8C: A1 00 C0 40 00                                  mov eax, dword ptr [0x40c000]
0x406D91: 8D 50 01                                        lea edx, ptr [eax+0x1]
0x406D94: 8B 85 B4 FA FF FF                               mov eax, dword ptr [ebp-0x54c]
0x406D9A: 89 04 95 04 C0 40 00                            mov dword ptr [edx*4+0x40c004], eax
0x406DA1: A1 00 C0 40 00                                  mov eax, dword ptr [0x40c000]
0x406DA6: 8D 50 02                                        lea edx, ptr [eax+0x2]
0x406DA9: 8B 85 B0 FA FF FF                               mov eax, dword ptr [ebp-0x550]
0x406DAF: 89 04 95 04 C0 40 00                            mov dword ptr [edx*4+0x40c004], eax
0x406DB6: A1 00 C0 40 00                                  mov eax, dword ptr [0x40c000]
0x406DBB: 83 C0 03                                        add eax, 0x3
0x406DBE: A3 00 C0 40 00                                  mov dword ptr [0x40c000], eax
0x406DC3: A1 04 80 40 00                                  mov eax, dword ptr [0x408004]
0x406DC8: 83 F8 04                                        cmp eax, 0x4
0x406DCB: 0F 8E C5 00 00 00                               jle 0xcb
0x406DD1: A1 00 C0 40 00                                  mov eax, dword ptr [0x40c000]
0x406DD6: 83 C0 03                                        add eax, 0x3
0x406DD9: 83 F8 06                                        cmp eax, 0x6
0x406DDC: 0F 8F B4 00 00 00                               jnle 0xba
0x406DE2: 8B 15 2C C0 40 00                               mov edx, dword ptr [0x40c02c]
0x406DE8: A1 34 C0 40 00                                  mov eax, dword ptr [0x40c034]
0x406DED: 39 C2                                           cmp edx, eax
0x406DEF: 0F 85 A1 00 00 00                               jnz 0xa7
0x406DF5: 8B 15 2C C0 40 00                               mov edx, dword ptr [0x40c02c]
0x406DFB: A1 30 C0 40 00                                  mov eax, dword ptr [0x40c030]
0x406E00: 39 C2                                           cmp edx, eax
0x406E02: 0F 85 8E 00 00 00                               jnz 0x94
0x406E08: A1 38 C0 40 00                                  mov eax, dword ptr [0x40c038]
0x406E0D: 89 85 AC FA FF FF                               mov dword ptr [ebp-0x554], eax
0x406E13: A1 2C C0 40 00                                  mov eax, dword ptr [0x40c02c]
0x406E18: 89 85 A8 FA FF FF                               mov dword ptr [ebp-0x558], eax
0x406E1E: 8B 85 A8 FA FF FF                               mov eax, dword ptr [ebp-0x558]
0x406E24: 3B 85 AC FA FF FF                               cmp eax, dword ptr [ebp-0x554]
0x406E2A: 7E 6A                                           jle 0x6c
0x406E2C: A1 04 80 40 00                                  mov eax, dword ptr [0x408004]
0x406E31: 83 E8 04                                        sub eax, 0x4
0x406E34: A3 04 80 40 00                                  mov dword ptr [0x408004], eax
0x406E39: 8B 95 AC FA FF FF                               mov edx, dword ptr [ebp-0x554]
0x406E3F: 8B 85 A8 FA FF FF                               mov eax, dword ptr [ebp-0x558]
0x406E45: 01 D0                                           add eax, edx
0x406E47: 89 85 A4 FA FF FF                               mov dword ptr [ebp-0x55c], eax
0x406E4D: A1 00 C0 40 00                                  mov eax, dword ptr [0x40c000]
0x406E52: 8B 95 AC FA FF FF                               mov edx, dword ptr [ebp-0x554]
0x406E58: 89 14 85 04 C0 40 00                            mov dword ptr [eax*4+0x40c004], edx
0x406E5F: A1 00 C0 40 00                                  mov eax, dword ptr [0x40c000]
0x406E64: 8D 50 01                                        lea edx, ptr [eax+0x1]
0x406E67: 8B 85 A8 FA FF FF                               mov eax, dword ptr [ebp-0x558]
0x406E6D: 89 04 95 04 C0 40 00                            mov dword ptr [edx*4+0x40c004], eax
0x406E74: A1 00 C0 40 00                                  mov eax, dword ptr [0x40c000]
0x406E79: 8D 50 02                                        lea edx, ptr [eax+0x2]
0x406E7C: 8B 85 A4 FA FF FF                               mov eax, dword ptr [ebp-0x55c]
0x406E82: 89 04 95 04 C0 40 00                            mov dword ptr [edx*4+0x40c004], eax
0x406E89: A1 00 C0 40 00                                  mov eax, dword ptr [0x40c000]
0x406E8E: 83 C0 03                                        add eax, 0x3
0x406E91: A3 00 C0 40 00                                  mov dword ptr [0x40c000], eax
0x406E96: A1 04 80 40 00                                  mov eax, dword ptr [0x408004]
0x406E9B: 83 F8 04                                        cmp eax, 0x4
0x406E9E: 0F 8E CF 00 00 00                               jle 0xd5
0x406EA4: A1 00 C0 40 00                                  mov eax, dword ptr [0x40c000]
0x406EA9: 83 C0 03                                        add eax, 0x3
0x406EAC: 83 F8 06                                        cmp eax, 0x6
0x406EAF: 0F 8F BE 00 00 00                               jnle 0xc4
0x406EB5: 8B 15 30 C0 40 00                               mov edx, dword ptr [0x40c030]
0x406EBB: A1 28 C0 40 00                                  mov eax, dword ptr [0x40c028]
0x406EC0: 39 C2                                           cmp edx, eax
0x406EC2: 0F 85 AB 00 00 00                               jnz 0xb1
0x406EC8: 8B 15 30 C0 40 00                               mov edx, dword ptr [0x40c030]
0x406ECE: A1 2C C0 40 00                                  mov eax, dword ptr [0x40c02c]
0x406ED3: 39 C2                                           cmp edx, eax
0x406ED5: 0F 85 98 00 00 00                               jnz 0x9e
0x406EDB: A1 38 C0 40 00                                  mov eax, dword ptr [0x40c038]
0x406EE0: 89 85 A0 FA FF FF                               mov dword ptr [ebp-0x560], eax
0x406EE6: A1 30 C0 40 00                                  mov eax, dword ptr [0x40c030]
0x406EEB: 89 85 9C FA FF FF                               mov dword ptr [ebp-0x564], eax
0x406EF1: 8B 85 9C FA FF FF                               mov eax, dword ptr [ebp-0x564]
0x406EF7: 3B 85 A0 FA FF FF                               cmp eax, dword ptr [ebp-0x560]
0x406EFD: 7E 74                                           jle 0x76
0x406EFF: A1 34 C0 40 00                                  mov eax, dword ptr [0x40c034]
0x406F04: A3 28 C0 40 00                                  mov dword ptr [0x40c028], eax
0x406F09: A1 04 80 40 00                                  mov eax, dword ptr [0x408004]
0x406F0E: 83 E8 04                                        sub eax, 0x4
0x406F11: A3 04 80 40 00                                  mov dword ptr [0x408004], eax
0x406F16: 8B 95 A0 FA FF FF                               mov edx, dword ptr [ebp-0x560]
0x406F1C: 8B 85 9C FA FF FF                               mov eax, dword ptr [ebp-0x564]
0x406F22: 01 D0                                           add eax, edx
0x406F24: 89 85 98 FA FF FF                               mov dword ptr [ebp-0x568], eax
0x406F2A: A1 00 C0 40 00                                  mov eax, dword ptr [0x40c000]
0x406F2F: 8B 95 A0 FA FF FF                               mov edx, dword ptr [ebp-0x560]
0x406F35: 89 14 85 04 C0 40 00                            mov dword ptr [eax*4+0x40c004], edx
0x406F3C: A1 00 C0 40 00                                  mov eax, dword ptr [0x40c000]
0x406F41: 8D 50 01                                        lea edx, ptr [eax+0x1]
0x406F44: 8B 85 9C FA FF FF                               mov eax, dword ptr [ebp-0x564]
0x406F4A: 89 04 95 04 C0 40 00                            mov dword ptr [edx*4+0x40c004], eax
0x406F51: A1 00 C0 40 00                                  mov eax, dword ptr [0x40c000]
0x406F56: 8D 50 02                                        lea edx, ptr [eax+0x2]
0x406F59: 8B 85 98 FA FF FF                               mov eax, dword ptr [ebp-0x568]
0x406F5F: 89 04 95 04 C0 40 00                            mov dword ptr [edx*4+0x40c004], eax
0x406F66: A1 00 C0 40 00                                  mov eax, dword ptr [0x40c000]
0x406F6B: 83 C0 03                                        add eax, 0x3
0x406F6E: A3 00 C0 40 00                                  mov dword ptr [0x40c000], eax
0x406F73: A1 04 80 40 00                                  mov eax, dword ptr [0x408004]
0x406F78: 83 F8 04                                        cmp eax, 0x4
0x406F7B: 0F 8E CF 00 00 00                               jle 0xd5
0x406F81: A1 00 C0 40 00                                  mov eax, dword ptr [0x40c000]
0x406F86: 83 C0 03                                        add eax, 0x3
0x406F89: 83 F8 06                                        cmp eax, 0x6
0x406F8C: 0F 8F BE 00 00 00                               jnle 0xc4
0x406F92: 8B 15 30 C0 40 00                               mov edx, dword ptr [0x40c030]
0x406F98: A1 28 C0 40 00                                  mov eax, dword ptr [0x40c028]
0x406F9D: 39 C2                                           cmp edx, eax
0x406F9F: 0F 85 AB 00 00 00                               jnz 0xb1
0x406FA5: 8B 15 30 C0 40 00                               mov edx, dword ptr [0x40c030]
0x406FAB: A1 34 C0 40 00                                  mov eax, dword ptr [0x40c034]
0x406FB0: 39 C2                                           cmp edx, eax
0x406FB2: 0F 85 98 00 00 00                               jnz 0x9e
0x406FB8: A1 38 C0 40 00                                  mov eax, dword ptr [0x40c038]
0x406FBD: 89 85 94 FA FF FF                               mov dword ptr [ebp-0x56c], eax
0x406FC3: A1 30 C0 40 00                                  mov eax, dword ptr [0x40c030]
0x406FC8: 89 85 90 FA FF FF                               mov dword ptr [ebp-0x570], eax
0x406FCE: 8B 85 90 FA FF FF                               mov eax, dword ptr [ebp-0x570]
0x406FD4: 3B 85 94 FA FF FF                               cmp eax, dword ptr [ebp-0x56c]
0x406FDA: 7E 74                                           jle 0x76
0x406FDC: A1 2C C0 40 00                                  mov eax, dword ptr [0x40c02c]
0x406FE1: A3 28 C0 40 00                                  mov dword ptr [0x40c028], eax
0x406FE6: A1 04 80 40 00                                  mov eax, dword ptr [0x408004]
0x406FEB: 83 E8 04                                        sub eax, 0x4
0x406FEE: A3 04 80 40 00                                  mov dword ptr [0x408004], eax
0x406FF3: 8B 95 94 FA FF FF                               mov edx, dword ptr [ebp-0x56c]
0x406FF9: 8B 85 90 FA FF FF                               mov eax, dword ptr [ebp-0x570]
0x406FFF: 01 D0                                           add eax, edx
0x407001: 89 85 8C FA FF FF                               mov dword ptr [ebp-0x574], eax
0x407007: A1 00 C0 40 00                                  mov eax, dword ptr [0x40c000]
0x40700C: 8B 95 94 FA FF FF                               mov edx, dword ptr [ebp-0x56c]
0x407012: 89 14 85 04 C0 40 00                            mov dword ptr [eax*4+0x40c004], edx
0x407019: A1 00 C0 40 00                                  mov eax, dword ptr [0x40c000]
0x40701E: 8D 50 01                                        lea edx, ptr [eax+0x1]
0x407021: 8B 85 90 FA FF FF                               mov eax, dword ptr [ebp-0x570]
0x407027: 89 04 95 04 C0 40 00                            mov dword ptr [edx*4+0x40c004], eax
0x40702E: A1 00 C0 40 00                                  mov eax, dword ptr [0x40c000]
0x407033: 8D 50 02                                        lea edx, ptr [eax+0x2]
0x407036: 8B 85 8C FA FF FF                               mov eax, dword ptr [ebp-0x574]
0x40703C: 89 04 95 04 C0 40 00                            mov dword ptr [edx*4+0x40c004], eax
0x407043: A1 00 C0 40 00                                  mov eax, dword ptr [0x40c000]
0x407048: 83 C0 03                                        add eax, 0x3
0x40704B: A3 00 C0 40 00                                  mov dword ptr [0x40c000], eax
0x407050: A1 04 80 40 00                                  mov eax, dword ptr [0x408004]
0x407055: 83 F8 04                                        cmp eax, 0x4
0x407058: 0F 8E CF 00 00 00                               jle 0xd5
0x40705E: A1 00 C0 40 00                                  mov eax, dword ptr [0x40c000]
0x407063: 83 C0 03                                        add eax, 0x3
0x407066: 83 F8 06                                        cmp eax, 0x6
0x407069: 0F 8F BE 00 00 00                               jnle 0xc4
0x40706F: 8B 15 30 C0 40 00                               mov edx, dword ptr [0x40c030]
0x407075: A1 2C C0 40 00                                  mov eax, dword ptr [0x40c02c]
0x40707A: 39 C2                                           cmp edx, eax
0x40707C: 0F 85 AB 00 00 00                               jnz 0xb1
0x407082: 8B 15 30 C0 40 00                               mov edx, dword ptr [0x40c030]
0x407088: A1 28 C0 40 00                                  mov eax, dword ptr [0x40c028]
0x40708D: 39 C2                                           cmp edx, eax
0x40708F: 0F 85 98 00 00 00                               jnz 0x9e
0x407095: A1 38 C0 40 00                                  mov eax, dword ptr [0x40c038]
0x40709A: 89 85 88 FA FF FF                               mov dword ptr [ebp-0x578], eax
0x4070A0: A1 30 C0 40 00                                  mov eax, dword ptr [0x40c030]
0x4070A5: 89 85 84 FA FF FF                               mov dword ptr [ebp-0x57c], eax
0x4070AB: 8B 85 84 FA FF FF                               mov eax, dword ptr [ebp-0x57c]
0x4070B1: 3B 85 88 FA FF FF                               cmp eax, dword ptr [ebp-0x578]
0x4070B7: 7E 74                                           jle 0x76
0x4070B9: A1 34 C0 40 00                                  mov eax, dword ptr [0x40c034]
0x4070BE: A3 28 C0 40 00                                  mov dword ptr [0x40c028], eax
0x4070C3: A1 04 80 40 00                                  mov eax, dword ptr [0x408004]
0x4070C8: 83 E8 04                                        sub eax, 0x4
0x4070CB: A3 04 80 40 00                                  mov dword ptr [0x408004], eax
0x4070D0: 8B 95 88 FA FF FF                               mov edx, dword ptr [ebp-0x578]
0x4070D6: 8B 85 84 FA FF FF                               mov eax, dword ptr [ebp-0x57c]
0x4070DC: 01 D0                                           add eax, edx
0x4070DE: 89 85 80 FA FF FF                               mov dword ptr [ebp-0x580], eax
0x4070E4: A1 00 C0 40 00                                  mov eax, dword ptr [0x40c000]
0x4070E9: 8B 95 88 FA FF FF                               mov edx, dword ptr [ebp-0x578]
0x4070EF: 89 14 85 04 C0 40 00                            mov dword ptr [eax*4+0x40c004], edx
0x4070F6: A1 00 C0 40 00                                  mov eax, dword ptr [0x40c000]
0x4070FB: 8D 50 01                                        lea edx, ptr [eax+0x1]
0x4070FE: 8B 85 84 FA FF FF                               mov eax, dword ptr [ebp-0x57c]
0x407104: 89 04 95 04 C0 40 00                            mov dword ptr [edx*4+0x40c004], eax
0x40710B: A1 00 C0 40 00                                  mov eax, dword ptr [0x40c000]
0x407110: 8D 50 02                                        lea edx, ptr [eax+0x2]
0x407113: 8B 85 80 FA FF FF                               mov eax, dword ptr [ebp-0x580]
0x407119: 89 04 95 04 C0 40 00                            mov dword ptr [edx*4+0x40c004], eax
0x407120: A1 00 C0 40 00                                  mov eax, dword ptr [0x40c000]
0x407125: 83 C0 03                                        add eax, 0x3
0x407128: A3 00 C0 40 00                                  mov dword ptr [0x40c000], eax
0x40712D: A1 04 80 40 00                                  mov eax, dword ptr [0x408004]
0x407132: 83 F8 04                                        cmp eax, 0x4
0x407135: 0F 8E C5 00 00 00                               jle 0xcb
0x40713B: A1 00 C0 40 00                                  mov eax, dword ptr [0x40c000]
0x407140: 83 C0 03                                        add eax, 0x3
0x407143: 83 F8 06                                        cmp eax, 0x6
0x407146: 0F 8F B4 00 00 00                               jnle 0xba
0x40714C: 8B 15 30 C0 40 00                               mov edx, dword ptr [0x40c030]
0x407152: A1 2C C0 40 00                                  mov eax, dword ptr [0x40c02c]
0x407157: 39 C2                                           cmp edx, eax
0x407159: 0F 85 A1 00 00 00                               jnz 0xa7
0x40715F: 8B 15 30 C0 40 00                               mov edx, dword ptr [0x40c030]
0x407165: A1 34 C0 40 00                                  mov eax, dword ptr [0x40c034]
0x40716A: 39 C2                                           cmp edx, eax
0x40716C: 0F 85 8E 00 00 00                               jnz 0x94
0x407172: A1 38 C0 40 00                                  mov eax, dword ptr [0x40c038]
0x407177: 89 85 7C FA FF FF                               mov dword ptr [ebp-0x584], eax
0x40717D: A1 30 C0 40 00                                  mov eax, dword ptr [0x40c030]
0x407182: 89 85 78 FA FF FF                               mov dword ptr [ebp-0x588], eax
0x407188: 8B 85 78 FA FF FF                               mov eax, dword ptr [ebp-0x588]
0x40718E: 3B 85 7C FA FF FF                               cmp eax, dword ptr [ebp-0x584]
0x407194: 7E 6A                                           jle 0x6c
0x407196: A1 04 80 40 00                                  mov eax, dword ptr [0x408004]
0x40719B: 83 E8 04                                        sub eax, 0x4
0x40719E: A3 04 80 40 00                                  mov dword ptr [0x408004], eax
0x4071A3: 8B 95 7C FA FF FF                               mov edx, dword ptr [ebp-0x584]
0x4071A9: 8B 85 78 FA FF FF                               mov eax, dword ptr [ebp-0x588]
0x4071AF: 01 D0                                           add eax, edx
0x4071B1: 89 85 74 FA FF FF                               mov dword ptr [ebp-0x58c], eax
0x4071B7: A1 00 C0 40 00                                  mov eax, dword ptr [0x40c000]
0x4071BC: 8B 95 7C FA FF FF                               mov edx, dword ptr [ebp-0x584]
0x4071C2: 89 14 85 04 C0 40 00                            mov dword ptr [eax*4+0x40c004], edx
0x4071C9: A1 00 C0 40 00                                  mov eax, dword ptr [0x40c000]
0x4071CE: 8D 50 01                                        lea edx, ptr [eax+0x1]
0x4071D1: 8B 85 78 FA FF FF                               mov eax, dword ptr [ebp-0x588]
0x4071D7: 89 04 95 04 C0 40 00                            mov dword ptr [edx*4+0x40c004], eax
0x4071DE: A1 00 C0 40 00                                  mov eax, dword ptr [0x40c000]
0x4071E3: 8D 50 02                                        lea edx, ptr [eax+0x2]
0x4071E6: 8B 85 74 FA FF FF                               mov eax, dword ptr [ebp-0x58c]
0x4071EC: 89 04 95 04 C0 40 00                            mov dword ptr [edx*4+0x40c004], eax
0x4071F3: A1 00 C0 40 00                                  mov eax, dword ptr [0x40c000]
0x4071F8: 83 C0 03                                        add eax, 0x3
0x4071FB: A3 00 C0 40 00                                  mov dword ptr [0x40c000], eax
0x407200: A1 04 80 40 00                                  mov eax, dword ptr [0x408004]
0x407205: 83 F8 04                                        cmp eax, 0x4
0x407208: 0F 8E CF 00 00 00                               jle 0xd5
0x40720E: A1 00 C0 40 00                                  mov eax, dword ptr [0x40c000]
0x407213: 83 C0 03                                        add eax, 0x3
0x407216: 83 F8 06                                        cmp eax, 0x6
0x407219: 0F 8F BE 00 00 00                               jnle 0xc4
0x40721F: 8B 15 30 C0 40 00                               mov edx, dword ptr [0x40c030]
0x407225: A1 34 C0 40 00                                  mov eax, dword ptr [0x40c034]
0x40722A: 39 C2                                           cmp edx, eax
0x40722C: 0F 85 AB 00 00 00                               jnz 0xb1
0x407232: 8B 15 30 C0 40 00                               mov edx, dword ptr [0x40c030]
0x407238: A1 28 C0 40 00                                  mov eax, dword ptr [0x40c028]
0x40723D: 39 C2                                           cmp edx, eax
0x40723F: 0F 85 98 00 00 00                               jnz 0x9e
0x407245: A1 38 C0 40 00                                  mov eax, dword ptr [0x40c038]
0x40724A: 89 85 70 FA FF FF                               mov dword ptr [ebp-0x590], eax
0x407250: A1 30 C0 40 00                                  mov eax, dword ptr [0x40c030]
0x407255: 89 85 6C FA FF FF                               mov dword ptr [ebp-0x594], eax
0x40725B: 8B 85 6C FA FF FF                               mov eax, dword ptr [ebp-0x594]
0x407261: 3B 85 70 FA FF FF                               cmp eax, dword ptr [ebp-0x590]
0x407267: 7E 74                                           jle 0x76
0x407269: A1 2C C0 40 00                                  mov eax, dword ptr [0x40c02c]
0x40726E: A3 28 C0 40 00                                  mov dword ptr [0x40c028], eax
0x407273: A1 04 80 40 00                                  mov eax, dword ptr [0x408004]
0x407278: 83 E8 04                                        sub eax, 0x4
0x40727B: A3 04 80 40 00                                  mov dword ptr [0x408004], eax
0x407280: 8B 95 70 FA FF FF                               mov edx, dword ptr [ebp-0x590]
0x407286: 8B 85 6C FA FF FF                               mov eax, dword ptr [ebp-0x594]
0x40728C: 01 D0                                           add eax, edx
0x40728E: 89 85 68 FA FF FF                               mov dword ptr [ebp-0x598], eax
0x407294: A1 00 C0 40 00                                  mov eax, dword ptr [0x40c000]
0x407299: 8B 95 70 FA FF FF                               mov edx, dword ptr [ebp-0x590]
0x40729F: 89 14 85 04 C0 40 00                            mov dword ptr [eax*4+0x40c004], edx
0x4072A6: A1 00 C0 40 00                                  mov eax, dword ptr [0x40c000]
0x4072AB: 8D 50 01                                        lea edx, ptr [eax+0x1]
0x4072AE: 8B 85 6C FA FF FF                               mov eax, dword ptr [ebp-0x594]
0x4072B4: 89 04 95 04 C0 40 00                            mov dword ptr [edx*4+0x40c004], eax
0x4072BB: A1 00 C0 40 00                                  mov eax, dword ptr [0x40c000]
0x4072C0: 8D 50 02                                        lea edx, ptr [eax+0x2]
0x4072C3: 8B 85 68 FA FF FF                               mov eax, dword ptr [ebp-0x598]
0x4072C9: 89 04 95 04 C0 40 00                            mov dword ptr [edx*4+0x40c004], eax
0x4072D0: A1 00 C0 40 00                                  mov eax, dword ptr [0x40c000]
0x4072D5: 83 C0 03                                        add eax, 0x3
0x4072D8: A3 00 C0 40 00                                  mov dword ptr [0x40c000], eax
0x4072DD: A1 04 80 40 00                                  mov eax, dword ptr [0x408004]
0x4072E2: 83 F8 04                                        cmp eax, 0x4
0x4072E5: 0F 8E C5 00 00 00                               jle 0xcb
0x4072EB: A1 00 C0 40 00                                  mov eax, dword ptr [0x40c000]
0x4072F0: 83 C0 03                                        add eax, 0x3
0x4072F3: 83 F8 06                                        cmp eax, 0x6
0x4072F6: 0F 8F B4 00 00 00                               jnle 0xba
0x4072FC: 8B 15 30 C0 40 00                               mov edx, dword ptr [0x40c030]
0x407302: A1 34 C0 40 00                                  mov eax, dword ptr [0x40c034]
0x407307: 39 C2                                           cmp edx, eax
0x407309: 0F 85 A1 00 00 00                               jnz 0xa7
0x40730F: 8B 15 30 C0 40 00                               mov edx, dword ptr [0x40c030]
0x407315: A1 2C C0 40 00                                  mov eax, dword ptr [0x40c02c]
0x40731A: 39 C2                                           cmp edx, eax
0x40731C: 0F 85 8E 00 00 00                               jnz 0x94
0x407322: A1 38 C0 40 00                                  mov eax, dword ptr [0x40c038]
0x407327: 89 85 64 FA FF FF                               mov dword ptr [ebp-0x59c], eax
0x40732D: A1 30 C0 40 00                                  mov eax, dword ptr [0x40c030]
0x407332: 89 85 60 FA FF FF                               mov dword ptr [ebp-0x5a0], eax
0x407338: 8B 85 60 FA FF FF                               mov eax, dword ptr [ebp-0x5a0]
0x40733E: 3B 85 64 FA FF FF                               cmp eax, dword ptr [ebp-0x59c]
0x407344: 7E 6A                                           jle 0x6c
0x407346: A1 04 80 40 00                                  mov eax, dword ptr [0x408004]
0x40734B: 83 E8 04                                        sub eax, 0x4
0x40734E: A3 04 80 40 00                                  mov dword ptr [0x408004], eax
0x407353: 8B 95 64 FA FF FF                               mov edx, dword ptr [ebp-0x59c]
0x407359: 8B 85 60 FA FF FF                               mov eax, dword ptr [ebp-0x5a0]
0x40735F: 01 D0                                           add eax, edx
0x407361: 89 85 5C FA FF FF                               mov dword ptr [ebp-0x5a4], eax
0x407367: A1 00 C0 40 00                                  mov eax, dword ptr [0x40c000]
0x40736C: 8B 95 64 FA FF FF                               mov edx, dword ptr [ebp-0x59c]
0x407372: 89 14 85 04 C0 40 00                            mov dword ptr [eax*4+0x40c004], edx
0x407379: A1 00 C0 40 00                                  mov eax, dword ptr [0x40c000]
0x40737E: 8D 50 01                                        lea edx, ptr [eax+0x1]
0x407381: 8B 85 60 FA FF FF                               mov eax, dword ptr [ebp-0x5a0]
0x407387: 89 04 95 04 C0 40 00                            mov dword ptr [edx*4+0x40c004], eax
0x40738E: A1 00 C0 40 00                                  mov eax, dword ptr [0x40c000]
0x407393: 8D 50 02                                        lea edx, ptr [eax+0x2]
0x407396: 8B 85 5C FA FF FF                               mov eax, dword ptr [ebp-0x5a4]
0x40739C: 89 04 95 04 C0 40 00                            mov dword ptr [edx*4+0x40c004], eax
0x4073A3: A1 00 C0 40 00                                  mov eax, dword ptr [0x40c000]
0x4073A8: 83 C0 03                                        add eax, 0x3
0x4073AB: A3 00 C0 40 00                                  mov dword ptr [0x40c000], eax
0x4073B0: A1 04 80 40 00                                  mov eax, dword ptr [0x408004]
0x4073B5: 83 F8 04                                        cmp eax, 0x4
0x4073B8: 0F 8E CF 00 00 00                               jle 0xd5
0x4073BE: A1 00 C0 40 00                                  mov eax, dword ptr [0x40c000]
0x4073C3: 83 C0 03                                        add eax, 0x3
0x4073C6: 83 F8 06                                        cmp eax, 0x6
0x4073C9: 0F 8F BE 00 00 00                               jnle 0xc4
0x4073CF: 8B 15 34 C0 40 00                               mov edx, dword ptr [0x40c034]
0x4073D5: A1 28 C0 40 00                                  mov eax, dword ptr [0x40c028]
0x4073DA: 39 C2                                           cmp edx, eax
0x4073DC: 0F 85 AB 00 00 00                               jnz 0xb1
0x4073E2: 8B 15 34 C0 40 00                               mov edx, dword ptr [0x40c034]
0x4073E8: A1 2C C0 40 00                                  mov eax, dword ptr [0x40c02c]
0x4073ED: 39 C2                                           cmp edx, eax
0x4073EF: 0F 85 98 00 00 00                               jnz 0x9e
0x4073F5: A1 38 C0 40 00                                  mov eax, dword ptr [0x40c038]
0x4073FA: 89 85 58 FA FF FF                               mov dword ptr [ebp-0x5a8], eax
0x407400: A1 34 C0 40 00                                  mov eax, dword ptr [0x40c034]
0x407405: 89 85 54 FA FF FF                               mov dword ptr [ebp-0x5ac], eax
0x40740B: 8B 85 54 FA FF FF                               mov eax, dword ptr [ebp-0x5ac]
0x407411: 3B 85 58 FA FF FF                               cmp eax, dword ptr [ebp-0x5a8]
0x407417: 7E 74                                           jle 0x76
0x407419: A1 30 C0 40 00                                  mov eax, dword ptr [0x40c030]
0x40741E: A3 28 C0 40 00                                  mov dword ptr [0x40c028], eax
0x407423: A1 04 80 40 00                                  mov eax, dword ptr [0x408004]
0x407428: 83 E8 04                                        sub eax, 0x4
0x40742B: A3 04 80 40 00                                  mov dword ptr [0x408004], eax
0x407430: 8B 95 58 FA FF FF                               mov edx, dword ptr [ebp-0x5a8]
0x407436: 8B 85 54 FA FF FF                               mov eax, dword ptr [ebp-0x5ac]
0x40743C: 01 D0                                           add eax, edx
0x40743E: 89 85 50 FA FF FF                               mov dword ptr [ebp-0x5b0], eax
0x407444: A1 00 C0 40 00                                  mov eax, dword ptr [0x40c000]
0x407449: 8B 95 58 FA FF FF                               mov edx, dword ptr [ebp-0x5a8]
0x40744F: 89 14 85 04 C0 40 00                            mov dword ptr [eax*4+0x40c004], edx
0x407456: A1 00 C0 40 00                                  mov eax, dword ptr [0x40c000]
0x40745B: 8D 50 01                                        lea edx, ptr [eax+0x1]
0x40745E: 8B 85 54 FA FF FF                               mov eax, dword ptr [ebp-0x5ac]
0x407464: 89 04 95 04 C0 40 00                            mov dword ptr [edx*4+0x40c004], eax
0x40746B: A1 00 C0 40 00                                  mov eax, dword ptr [0x40c000]
0x407470: 8D 50 02                                        lea edx, ptr [eax+0x2]
0x407473: 8B 85 50 FA FF FF                               mov eax, dword ptr [ebp-0x5b0]
0x407479: 89 04 95 04 C0 40 00                            mov dword ptr [edx*4+0x40c004], eax
0x407480: A1 00 C0 40 00                                  mov eax, dword ptr [0x40c000]
0x407485: 83 C0 03                                        add eax, 0x3
0x407488: A3 00 C0 40 00                                  mov dword ptr [0x40c000], eax
0x40748D: A1 04 80 40 00                                  mov eax, dword ptr [0x408004]
0x407492: 83 F8 04                                        cmp eax, 0x4
0x407495: 0F 8E CF 00 00 00                               jle 0xd5
0x40749B: A1 00 C0 40 00                                  mov eax, dword ptr [0x40c000]
0x4074A0: 83 C0 03                                        add eax, 0x3
0x4074A3: 83 F8 06                                        cmp eax, 0x6
0x4074A6: 0F 8F BE 00 00 00                               jnle 0xc4
0x4074AC: 8B 15 34 C0 40 00                               mov edx, dword ptr [0x40c034]
0x4074B2: A1 28 C0 40 00                                  mov eax, dword ptr [0x40c028]
0x4074B7: 39 C2                                           cmp edx, eax
0x4074B9: 0F 85 AB 00 00 00                               jnz 0xb1
0x4074BF: 8B 15 34 C0 40 00                               mov edx, dword ptr [0x40c034]
0x4074C5: A1 30 C0 40 00                                  mov eax, dword ptr [0x40c030]
0x4074CA: 39 C2                                           cmp edx, eax
0x4074CC: 0F 85 98 00 00 00                               jnz 0x9e
0x4074D2: A1 38 C0 40 00                                  mov eax, dword ptr [0x40c038]
0x4074D7: 89 85 4C FA FF FF                               mov dword ptr [ebp-0x5b4], eax
0x4074DD: A1 34 C0 40 00                                  mov eax, dword ptr [0x40c034]
0x4074E2: 89 85 48 FA FF FF                               mov dword ptr [ebp-0x5b8], eax
0x4074E8: 8B 85 48 FA FF FF                               mov eax, dword ptr [ebp-0x5b8]
0x4074EE: 3B 85 4C FA FF FF                               cmp eax, dword ptr [ebp-0x5b4]
0x4074F4: 7E 74                                           jle 0x76
0x4074F6: A1 2C C0 40 00                                  mov eax, dword ptr [0x40c02c]
0x4074FB: A3 28 C0 40 00                                  mov dword ptr [0x40c028], eax
0x407500: A1 04 80 40 00                                  mov eax, dword ptr [0x408004]
0x407505: 83 E8 04                                        sub eax, 0x4
0x407508: A3 04 80 40 00                                  mov dword ptr [0x408004], eax
0x40750D: 8B 95 4C FA FF FF                               mov edx, dword ptr [ebp-0x5b4]
0x407513: 8B 85 48 FA FF FF                               mov eax, dword ptr [ebp-0x5b8]
0x407519: 01 D0                                           add eax, edx
0x40751B: 89 85 44 FA FF FF                               mov dword ptr [ebp-0x5bc], eax
0x407521: A1 00 C0 40 00                                  mov eax, dword ptr [0x40c000]
0x407526: 8B 95 4C FA FF FF                               mov edx, dword ptr [ebp-0x5b4]
0x40752C: 89 14 85 04 C0 40 00                            mov dword ptr [eax*4+0x40c004], edx
0x407533: A1 00 C0 40 00                                  mov eax, dword ptr [0x40c000]
0x407538: 8D 50 01                                        lea edx, ptr [eax+0x1]
0x40753B: 8B 85 48 FA FF FF                               mov eax, dword ptr [ebp-0x5b8]
0x407541: 89 04 95 04 C0 40 00                            mov dword ptr [edx*4+0x40c004], eax
0x407548: A1 00 C0 40 00                                  mov eax, dword ptr [0x40c000]
0x40754D: 8D 50 02                                        lea edx, ptr [eax+0x2]
0x407550: 8B 85 44 FA FF FF                               mov eax, dword ptr [ebp-0x5bc]
0x407556: 89 04 95 04 C0 40 00                            mov dword ptr [edx*4+0x40c004], eax
0x40755D: A1 00 C0 40 00                                  mov eax, dword ptr [0x40c000]
0x407562: 83 C0 03                                        add eax, 0x3
0x407565: A3 00 C0 40 00                                  mov dword ptr [0x40c000], eax
0x40756A: A1 04 80 40 00                                  mov eax, dword ptr [0x408004]
0x40756F: 83 F8 04                                        cmp eax, 0x4
0x407572: 0F 8E CF 00 00 00                               jle 0xd5
0x407578: A1 00 C0 40 00                                  mov eax, dword ptr [0x40c000]
0x40757D: 83 C0 03                                        add eax, 0x3
0x407580: 83 F8 06                                        cmp eax, 0x6
0x407583: 0F 8F BE 00 00 00                               jnle 0xc4
0x407589: 8B 15 34 C0 40 00                               mov edx, dword ptr [0x40c034]
0x40758F: A1 2C C0 40 00                                  mov eax, dword ptr [0x40c02c]
0x407594: 39 C2                                           cmp edx, eax
0x407596: 0F 85 AB 00 00 00                               jnz 0xb1
0x40759C: 8B 15 34 C0 40 00                               mov edx, dword ptr [0x40c034]
0x4075A2: A1 28 C0 40 00                                  mov eax, dword ptr [0x40c028]
0x4075A7: 39 C2                                           cmp edx, eax
0x4075A9: 0F 85 98 00 00 00                               jnz 0x9e
0x4075AF: A1 38 C0 40 00                                  mov eax, dword ptr [0x40c038]
0x4075B4: 89 85 40 FA FF FF                               mov dword ptr [ebp-0x5c0], eax
0x4075BA: A1 34 C0 40 00                                  mov eax, dword ptr [0x40c034]
0x4075BF: 89 85 3C FA FF FF                               mov dword ptr [ebp-0x5c4], eax
0x4075C5: 8B 85 3C FA FF FF                               mov eax, dword ptr [ebp-0x5c4]
0x4075CB: 3B 85 40 FA FF FF                               cmp eax, dword ptr [ebp-0x5c0]
0x4075D1: 7E 74                                           jle 0x76
0x4075D3: A1 30 C0 40 00                                  mov eax, dword ptr [0x40c030]
0x4075D8: A3 28 C0 40 00                                  mov dword ptr [0x40c028], eax
0x4075DD: A1 04 80 40 00                                  mov eax, dword ptr [0x408004]
0x4075E2: 83 E8 04                                        sub eax, 0x4
0x4075E5: A3 04 80 40 00                                  mov dword ptr [0x408004], eax
0x4075EA: 8B 95 40 FA FF FF                               mov edx, dword ptr [ebp-0x5c0]
0x4075F0: 8B 85 3C FA FF FF                               mov eax, dword ptr [ebp-0x5c4]
0x4075F6: 01 D0                                           add eax, edx
0x4075F8: 89 85 38 FA FF FF                               mov dword ptr [ebp-0x5c8], eax
0x4075FE: A1 00 C0 40 00                                  mov eax, dword ptr [0x40c000]
0x407603: 8B 95 40 FA FF FF                               mov edx, dword ptr [ebp-0x5c0]
0x407609: 89 14 85 04 C0 40 00                            mov dword ptr [eax*4+0x40c004], edx
0x407610: A1 00 C0 40 00                                  mov eax, dword ptr [0x40c000]
0x407615: 8D 50 01                                        lea edx, ptr [eax+0x1]
0x407618: 8B 85 3C FA FF FF                               mov eax, dword ptr [ebp-0x5c4]
0x40761E: 89 04 95 04 C0 40 00                            mov dword ptr [edx*4+0x40c004], eax
0x407625: A1 00 C0 40 00                                  mov eax, dword ptr [0x40c000]
0x40762A: 8D 50 02                                        lea edx, ptr [eax+0x2]
0x40762D: 8B 85 38 FA FF FF                               mov eax, dword ptr [ebp-0x5c8]
0x407633: 89 04 95 04 C0 40 00                            mov dword ptr [edx*4+0x40c004], eax
0x40763A: A1 00 C0 40 00                                  mov eax, dword ptr [0x40c000]
0x40763F: 83 C0 03                                        add eax, 0x3
0x407642: A3 00 C0 40 00                                  mov dword ptr [0x40c000], eax
0x407647: A1 04 80 40 00                                  mov eax, dword ptr [0x408004]
0x40764C: 83 F8 04                                        cmp eax, 0x4
0x40764F: 0F 8E C5 00 00 00                               jle 0xcb
0x407655: A1 00 C0 40 00                                  mov eax, dword ptr [0x40c000]
0x40765A: 83 C0 03                                        add eax, 0x3
0x40765D: 83 F8 06                                        cmp eax, 0x6
0x407660: 0F 8F B4 00 00 00                               jnle 0xba
0x407666: 8B 15 34 C0 40 00                               mov edx, dword ptr [0x40c034]
0x40766C: A1 2C C0 40 00                                  mov eax, dword ptr [0x40c02c]
0x407671: 39 C2                                           cmp edx, eax
0x407673: 0F 85 A1 00 00 00                               jnz 0xa7
0x407679: 8B 15 34 C0 40 00                               mov edx, dword ptr [0x40c034]
0x40767F: A1 30 C0 40 00                                  mov eax, dword ptr [0x40c030]
0x407684: 39 C2                                           cmp edx, eax
0x407686: 0F 85 8E 00 00 00                               jnz 0x94
0x40768C: A1 38 C0 40 00                                  mov eax, dword ptr [0x40c038]
0x407691: 89 85 34 FA FF FF                               mov dword ptr [ebp-0x5cc], eax
0x407697: A1 34 C0 40 00                                  mov eax, dword ptr [0x40c034]
0x40769C: 89 85 30 FA FF FF                               mov dword ptr [ebp-0x5d0], eax
0x4076A2: 8B 85 30 FA FF FF                               mov eax, dword ptr [ebp-0x5d0]
0x4076A8: 3B 85 34 FA FF FF                               cmp eax, dword ptr [ebp-0x5cc]
0x4076AE: 7E 6A                                           jle 0x6c
0x4076B0: A1 04 80 40 00                                  mov eax, dword ptr [0x408004]
0x4076B5: 83 E8 04                                        sub eax, 0x4
0x4076B8: A3 04 80 40 00                                  mov dword ptr [0x408004], eax
0x4076BD: 8B 95 34 FA FF FF                               mov edx, dword ptr [ebp-0x5cc]
0x4076C3: 8B 85 30 FA FF FF                               mov eax, dword ptr [ebp-0x5d0]
0x4076C9: 01 D0                                           add eax, edx
0x4076CB: 89 85 2C FA FF FF                               mov dword ptr [ebp-0x5d4], eax
0x4076D1: A1 00 C0 40 00                                  mov eax, dword ptr [0x40c000]
0x4076D6: 8B 95 34 FA FF FF                               mov edx, dword ptr [ebp-0x5cc]
0x4076DC: 89 14 85 04 C0 40 00                            mov dword ptr [eax*4+0x40c004], edx
0x4076E3: A1 00 C0 40 00                                  mov eax, dword ptr [0x40c000]
0x4076E8: 8D 50 01                                        lea edx, ptr [eax+0x1]
0x4076EB: 8B 85 30 FA FF FF                               mov eax, dword ptr [ebp-0x5d0]
0x4076F1: 89 04 95 04 C0 40 00                            mov dword ptr [edx*4+0x40c004], eax
0x4076F8: A1 00 C0 40 00                                  mov eax, dword ptr [0x40c000]
0x4076FD: 8D 50 02                                        lea edx, ptr [eax+0x2]
0x407700: 8B 85 2C FA FF FF                               mov eax, dword ptr [ebp-0x5d4]
0x407706: 89 04 95 04 C0 40 00                            mov dword ptr [edx*4+0x40c004], eax
0x40770D: A1 00 C0 40 00                                  mov eax, dword ptr [0x40c000]
0x407712: 83 C0 03                                        add eax, 0x3
0x407715: A3 00 C0 40 00                                  mov dword ptr [0x40c000], eax
0x40771A: A1 04 80 40 00                                  mov eax, dword ptr [0x408004]
0x40771F: 83 F8 04                                        cmp eax, 0x4
0x407722: 0F 8E CF 00 00 00                               jle 0xd5
0x407728: A1 00 C0 40 00                                  mov eax, dword ptr [0x40c000]
0x40772D: 83 C0 03                                        add eax, 0x3
0x407730: 83 F8 06                                        cmp eax, 0x6
0x407733: 0F 8F BE 00 00 00                               jnle 0xc4
0x407739: 8B 15 34 C0 40 00                               mov edx, dword ptr [0x40c034]
0x40773F: A1 30 C0 40 00                                  mov eax, dword ptr [0x40c030]
0x407744: 39 C2                                           cmp edx, eax
0x407746: 0F 85 AB 00 00 00                               jnz 0xb1
0x40774C: 8B 15 34 C0 40 00                               mov edx, dword ptr [0x40c034]
0x407752: A1 28 C0 40 00                                  mov eax, dword ptr [0x40c028]
0x407757: 39 C2                                           cmp edx, eax
0x407759: 0F 85 98 00 00 00                               jnz 0x9e
0x40775F: A1 38 C0 40 00                                  mov eax, dword ptr [0x40c038]
0x407764: 89 85 28 FA FF FF                               mov dword ptr [ebp-0x5d8], eax
0x40776A: A1 34 C0 40 00                                  mov eax, dword ptr [0x40c034]
0x40776F: 89 85 24 FA FF FF                               mov dword ptr [ebp-0x5dc], eax
0x407775: 8B 85 24 FA FF FF                               mov eax, dword ptr [ebp-0x5dc]
0x40777B: 3B 85 28 FA FF FF                               cmp eax, dword ptr [ebp-0x5d8]
0x407781: 7E 74                                           jle 0x76
0x407783: A1 2C C0 40 00                                  mov eax, dword ptr [0x40c02c]
0x407788: A3 28 C0 40 00                                  mov dword ptr [0x40c028], eax
0x40778D: A1 04 80 40 00                                  mov eax, dword ptr [0x408004]
0x407792: 83 E8 04                                        sub eax, 0x4
0x407795: A3 04 80 40 00                                  mov dword ptr [0x408004], eax
0x40779A: 8B 95 28 FA FF FF                               mov edx, dword ptr [ebp-0x5d8]
0x4077A0: 8B 85 24 FA FF FF                               mov eax, dword ptr [ebp-0x5dc]
0x4077A6: 01 D0                                           add eax, edx
0x4077A8: 89 85 20 FA FF FF                               mov dword ptr [ebp-0x5e0], eax
0x4077AE: A1 00 C0 40 00                                  mov eax, dword ptr [0x40c000]
0x4077B3: 8B 95 28 FA FF FF                               mov edx, dword ptr [ebp-0x5d8]
0x4077B9: 89 14 85 04 C0 40 00                            mov dword ptr [eax*4+0x40c004], edx
0x4077C0: A1 00 C0 40 00                                  mov eax, dword ptr [0x40c000]
0x4077C5: 8D 50 01                                        lea edx, ptr [eax+0x1]
0x4077C8: 8B 85 24 FA FF FF                               mov eax, dword ptr [ebp-0x5dc]
0x4077CE: 89 04 95 04 C0 40 00                            mov dword ptr [edx*4+0x40c004], eax
0x4077D5: A1 00 C0 40 00                                  mov eax, dword ptr [0x40c000]
0x4077DA: 8D 50 02                                        lea edx, ptr [eax+0x2]
0x4077DD: 8B 85 20 FA FF FF                               mov eax, dword ptr [ebp-0x5e0]
0x4077E3: 89 04 95 04 C0 40 00                            mov dword ptr [edx*4+0x40c004], eax
0x4077EA: A1 00 C0 40 00                                  mov eax, dword ptr [0x40c000]
0x4077EF: 83 C0 03                                        add eax, 0x3
0x4077F2: A3 00 C0 40 00                                  mov dword ptr [0x40c000], eax
0x4077F7: A1 04 80 40 00                                  mov eax, dword ptr [0x408004]
0x4077FC: 83 F8 04                                        cmp eax, 0x4
0x4077FF: 0F 8E C5 00 00 00                               jle 0xcb
0x407805: A1 00 C0 40 00                                  mov eax, dword ptr [0x40c000]
0x40780A: 83 C0 03                                        add eax, 0x3
0x40780D: 83 F8 06                                        cmp eax, 0x6
0x407810: 0F 8F B4 00 00 00                               jnle 0xba
0x407816: 8B 15 34 C0 40 00                               mov edx, dword ptr [0x40c034]
0x40781C: A1 30 C0 40 00                                  mov eax, dword ptr [0x40c030]
0x407821: 39 C2                                           cmp edx, eax
0x407823: 0F 85 A1 00 00 00                               jnz 0xa7
0x407829: 8B 15 34 C0 40 00                               mov edx, dword ptr [0x40c034]
0x40782F: A1 2C C0 40 00                                  mov eax, dword ptr [0x40c02c]
0x407834: 39 C2                                           cmp edx, eax
0x407836: 0F 85 8E 00 00 00                               jnz 0x94
0x40783C: A1 38 C0 40 00                                  mov eax, dword ptr [0x40c038]
0x407841: 89 85 1C FA FF FF                               mov dword ptr [ebp-0x5e4], eax
0x407847: A1 34 C0 40 00                                  mov eax, dword ptr [0x40c034]
0x40784C: 89 85 18 FA FF FF                               mov dword ptr [ebp-0x5e8], eax
0x407852: 8B 85 18 FA FF FF                               mov eax, dword ptr [ebp-0x5e8]
0x407858: 3B 85 1C FA FF FF                               cmp eax, dword ptr [ebp-0x5e4]
0x40785E: 7E 6A                                           jle 0x6c
0x407860: A1 04 80 40 00                                  mov eax, dword ptr [0x408004]
0x407865: 83 E8 04                                        sub eax, 0x4
0x407868: A3 04 80 40 00                                  mov dword ptr [0x408004], eax
0x40786D: 8B 95 1C FA FF FF                               mov edx, dword ptr [ebp-0x5e4]
0x407873: 8B 85 18 FA FF FF                               mov eax, dword ptr [ebp-0x5e8]
0x407879: 01 D0                                           add eax, edx
0x40787B: 89 85 14 FA FF FF                               mov dword ptr [ebp-0x5ec], eax
0x407881: A1 00 C0 40 00                                  mov eax, dword ptr [0x40c000]
0x407886: 8B 95 1C FA FF FF                               mov edx, dword ptr [ebp-0x5e4]
0x40788C: 89 14 85 04 C0 40 00                            mov dword ptr [eax*4+0x40c004], edx
0x407893: A1 00 C0 40 00                                  mov eax, dword ptr [0x40c000]
0x407898: 8D 50 01                                        lea edx, ptr [eax+0x1]
0x40789B: 8B 85 18 FA FF FF                               mov eax, dword ptr [ebp-0x5e8]
0x4078A1: 89 04 95 04 C0 40 00                            mov dword ptr [edx*4+0x40c004], eax
0x4078A8: A1 00 C0 40 00                                  mov eax, dword ptr [0x40c000]
0x4078AD: 8D 50 02                                        lea edx, ptr [eax+0x2]
0x4078B0: 8B 85 14 FA FF FF                               mov eax, dword ptr [ebp-0x5ec]
0x4078B6: 89 04 95 04 C0 40 00                            mov dword ptr [edx*4+0x40c004], eax
0x4078BD: A1 00 C0 40 00                                  mov eax, dword ptr [0x40c000]
0x4078C2: 83 C0 03                                        add eax, 0x3
0x4078C5: A3 00 C0 40 00                                  mov dword ptr [0x40c000], eax
0x4078CA: 83 7D FC 00                                     cmp dword ptr [ebp-0x4], 0x0
0x4078CE: 0F 8F 4E 97 FF FF                               jnle 0xffff9754
0x4078D4: C7 45 FC 4D 00 00 00                            mov dword ptr [ebp-0x4], 0x4d
0x4078DB: 8B 45 FC                                        mov eax, dword ptr [ebp-0x4]
0x4078DE: C9                                              leave 
0x4078DF: C3                                              ret 
